
obj/kern/kernel:     file format elf32-i386


Disassembly of section .text:

00100000 <_start-0xc>:
.long MULTIBOOT_HEADER_FLAGS
.long CHECKSUM

.globl		start,_start
start: _start:
	movw	$0x1234,0x472			# warm boot BIOS flag
  100000:	02 b0 ad 1b 03 00    	add    0x31bad(%eax),%dh
  100006:	00 00                	add    %al,(%eax)
  100008:	fb                   	sti    
  100009:	4f                   	dec    %edi
  10000a:	52                   	push   %edx
  10000b:	e4 66                	in     $0x66,%al

0010000c <_start>:
  10000c:	66 c7 05 72 04 00 00 	movw   $0x1234,0x472
  100013:	34 12 

	# Clear the frame pointer register (EBP)
	# so that once we get into debugging C code,
	# stack backtraces will be terminated properly.
	movl	$0x0,%ebp			# nuke frame pointer
  100015:	bd 00 00 00 00       	mov    $0x0,%ebp

	# Leave a few words on the stack for the user trap frame
	movl	$(cpu_boot+4096-SIZEOF_STRUCT_TRAPFRAME),%esp
  10001a:	bc b4 bf 10 00       	mov    $0x10bfb4,%esp

	# now to C code
	call	init
  10001f:	e8 6d 00 00 00       	call   100091 <init>

00100024 <spin>:

	# Should never get here, but in case we do, just spin.
spin:	jmp	spin
  100024:	eb fe                	jmp    100024 <spin>

00100026 <cpu_cur>:
#define cpu_disabled(c)		0

// Find the CPU struct representing the current CPU.
// It always resides at the bottom of the page containing the CPU's stack.
static inline cpu *
cpu_cur() {
  100026:	55                   	push   %ebp
  100027:	89 e5                	mov    %esp,%ebp
  100029:	83 ec 28             	sub    $0x28,%esp

static gcc_inline uint32_t
read_esp(void)
{
        uint32_t esp;
        __asm __volatile("movl %%esp,%0" : "=rm" (esp));
  10002c:	89 65 f4             	mov    %esp,-0xc(%ebp)
        return esp;
  10002f:	8b 45 f4             	mov    -0xc(%ebp),%eax
	cpu *c = (cpu*)ROUNDDOWN(read_esp(), PAGESIZE);
  100032:	89 45 f0             	mov    %eax,-0x10(%ebp)
  100035:	8b 45 f0             	mov    -0x10(%ebp),%eax
  100038:	25 00 f0 ff ff       	and    $0xfffff000,%eax
  10003d:	89 45 ec             	mov    %eax,-0x14(%ebp)
	assert(c->magic == CPU_MAGIC);
  100040:	8b 45 ec             	mov    -0x14(%ebp),%eax
  100043:	8b 80 b8 00 00 00    	mov    0xb8(%eax),%eax
  100049:	3d 32 54 76 98       	cmp    $0x98765432,%eax
  10004e:	74 24                	je     100074 <cpu_cur+0x4e>
  100050:	c7 44 24 0c c0 81 10 	movl   $0x1081c0,0xc(%esp)
  100057:	00 
  100058:	c7 44 24 08 d6 81 10 	movl   $0x1081d6,0x8(%esp)
  10005f:	00 
  100060:	c7 44 24 04 5c 00 00 	movl   $0x5c,0x4(%esp)
  100067:	00 
  100068:	c7 04 24 eb 81 10 00 	movl   $0x1081eb,(%esp)
  10006f:	e8 0d 04 00 00       	call   100481 <debug_panic>
	return c;
  100074:	8b 45 ec             	mov    -0x14(%ebp),%eax
}
  100077:	c9                   	leave  
  100078:	c3                   	ret    

00100079 <cpu_onboot>:

// Returns true if we're running on the bootstrap CPU.
static inline int
cpu_onboot() {
  100079:	55                   	push   %ebp
  10007a:	89 e5                	mov    %esp,%ebp
  10007c:	83 ec 08             	sub    $0x8,%esp
	return cpu_cur() == &cpu_boot;
  10007f:	e8 a2 ff ff ff       	call   100026 <cpu_cur>
  100084:	3d 00 b0 10 00       	cmp    $0x10b000,%eax
  100089:	0f 94 c0             	sete   %al
  10008c:	0f b6 c0             	movzbl %al,%eax
}
  10008f:	c9                   	leave  
  100090:	c3                   	ret    

00100091 <init>:
// Called first from entry.S on the bootstrap processor,
// and later from boot/bootother.S on all other processors.
// As a rule, "init" functions in PIOS are called once on EACH processor.
void
init(void)
{
  100091:	55                   	push   %ebp
  100092:	89 e5                	mov    %esp,%ebp
  100094:	53                   	push   %ebx
  100095:	83 ec 14             	sub    $0x14,%esp
	extern char start[], edata[], end[];

	// Before anything else, complete the ELF loading process.
	// Clear all uninitialized global data (BSS) in our program,
	// ensuring that all static/global variables start out zero.
	if (cpu_onboot())
  100098:	e8 dc ff ff ff       	call   100079 <cpu_onboot>
  10009d:	85 c0                	test   %eax,%eax
  10009f:	74 28                	je     1000c9 <init+0x38>
		memset(edata, 0, end - edata);
  1000a1:	ba 08 20 32 00       	mov    $0x322008,%edx
  1000a6:	b8 34 85 11 00       	mov    $0x118534,%eax
  1000ab:	89 d1                	mov    %edx,%ecx
  1000ad:	29 c1                	sub    %eax,%ecx
  1000af:	89 c8                	mov    %ecx,%eax
  1000b1:	89 44 24 08          	mov    %eax,0x8(%esp)
  1000b5:	c7 44 24 04 00 00 00 	movl   $0x0,0x4(%esp)
  1000bc:	00 
  1000bd:	c7 04 24 34 85 11 00 	movl   $0x118534,(%esp)
  1000c4:	e8 7b 7c 00 00       	call   107d44 <memset>
	//cprintf("1\n");

	// Initialize the console.
	// Can't call cprintf until after we do this!
	cons_init();
  1000c9:	e8 c6 02 00 00       	call   100394 <cons_init>

	// Initialize and load the bootstrap CPU's GDT, TSS, and IDT.
	//cprintf("1\n");
	cpu_init();
  1000ce:	e8 31 10 00 00       	call   101104 <cpu_init>
	//cprintf("1\n");
	trap_init();
  1000d3:	e8 75 15 00 00       	call   10164d <trap_init>

	// Physical memory detection/initialization.
	// Can't call mem_alloc until after we do this!
	mem_init();
  1000d8:	e8 5e 08 00 00       	call   10093b <mem_init>

	// Lab 2: check spinlock implementation
	if (cpu_onboot())
  1000dd:	e8 97 ff ff ff       	call   100079 <cpu_onboot>
  1000e2:	85 c0                	test   %eax,%eax
  1000e4:	74 05                	je     1000eb <init+0x5a>
		spinlock_check();
  1000e6:	e8 56 23 00 00       	call   102441 <spinlock_check>

	// Initialize the paged virtual memory system.
	pmap_init();
  1000eb:	e8 79 3c 00 00       	call   103d69 <pmap_init>

	// Find and start other processors in a multiprocessor system
	mp_init();		// Find info about processors in system
  1000f0:	e8 ec 1f 00 00       	call   1020e1 <mp_init>
	pic_init();		// setup the legacy PIC (mainly to disable it)
  1000f5:	e8 52 6b 00 00       	call   106c4c <pic_init>
	ioapic_init();		// prepare to handle external device interrupts
  1000fa:	e8 80 71 00 00       	call   10727f <ioapic_init>
	lapic_init();		// setup this CPU's local APIC
  1000ff:	e8 2b 6e 00 00       	call   106f2f <lapic_init>
		// Initialize the process management code.
	proc_init();
  100104:	e8 83 29 00 00       	call   102a8c <proc_init>
	cpu_bootothers();	// Get other processors started
  100109:	e8 c5 11 00 00       	call   1012d3 <cpu_bootothers>
	cprintf("CPU %d (%s) has booted\n", cpu_cur()->id,
		cpu_onboot() ? "BP" : "AP");
  10010e:	e8 66 ff ff ff       	call   100079 <cpu_onboot>
	ioapic_init();		// prepare to handle external device interrupts
	lapic_init();		// setup this CPU's local APIC
		// Initialize the process management code.
	proc_init();
	cpu_bootothers();	// Get other processors started
	cprintf("CPU %d (%s) has booted\n", cpu_cur()->id,
  100113:	85 c0                	test   %eax,%eax
  100115:	74 07                	je     10011e <init+0x8d>
  100117:	bb f8 81 10 00       	mov    $0x1081f8,%ebx
  10011c:	eb 05                	jmp    100123 <init+0x92>
  10011e:	bb fb 81 10 00       	mov    $0x1081fb,%ebx
  100123:	e8 fe fe ff ff       	call   100026 <cpu_cur>
  100128:	0f b6 80 ac 00 00 00 	movzbl 0xac(%eax),%eax
  10012f:	0f b6 c0             	movzbl %al,%eax
  100132:	89 5c 24 08          	mov    %ebx,0x8(%esp)
  100136:	89 44 24 04          	mov    %eax,0x4(%esp)
  10013a:	c7 04 24 fe 81 10 00 	movl   $0x1081fe,(%esp)
  100141:	e8 19 7a 00 00       	call   107b5f <cprintf>
	};
	
	trap_return(&tt);
	*/

	if(cpu_onboot()){
  100146:	e8 2e ff ff ff       	call   100079 <cpu_onboot>
  10014b:	85 c0                	test   %eax,%eax
  10014d:	74 71                	je     1001c0 <init+0x12f>
		proc_root = proc_alloc(&proc_null, 0);
  10014f:	c7 44 24 04 00 00 00 	movl   $0x0,0x4(%esp)
  100156:	00 
  100157:	c7 04 24 80 ed 31 00 	movl   $0x31ed80,(%esp)
  10015e:	e8 77 29 00 00       	call   102ada <proc_alloc>
  100163:	a3 84 f4 31 00       	mov    %eax,0x31f484
		proc_root->sv.tf.eip = (uint32_t)(user);
  100168:	a1 84 f4 31 00       	mov    0x31f484,%eax
  10016d:	ba c5 01 10 00       	mov    $0x1001c5,%edx
  100172:	89 90 88 04 00 00    	mov    %edx,0x488(%eax)
		proc_root->sv.tf.esp = (uint32_t)&user_stack[PAGESIZE];
  100178:	a1 84 f4 31 00       	mov    0x31f484,%eax
  10017d:	ba 00 a0 11 00       	mov    $0x11a000,%edx
  100182:	89 90 94 04 00 00    	mov    %edx,0x494(%eax)
		//proc_root->sv.tf.eflags = FL_IOPL_3;
		proc_root->sv.tf.eflags = FL_IF;
  100188:	a1 84 f4 31 00       	mov    0x31f484,%eax
  10018d:	c7 80 90 04 00 00 00 	movl   $0x200,0x490(%eax)
  100194:	02 00 00 
		proc_root->sv.tf.gs = CPU_GDT_UDATA | 3;
  100197:	a1 84 f4 31 00       	mov    0x31f484,%eax
  10019c:	66 c7 80 70 04 00 00 	movw   $0x23,0x470(%eax)
  1001a3:	23 00 
		proc_root->sv.tf.fs = CPU_GDT_UDATA | 3;
  1001a5:	a1 84 f4 31 00       	mov    0x31f484,%eax
  1001aa:	66 c7 80 74 04 00 00 	movw   $0x23,0x474(%eax)
  1001b1:	23 00 

		proc_ready(proc_root);	
  1001b3:	a1 84 f4 31 00       	mov    0x31f484,%eax
  1001b8:	89 04 24             	mov    %eax,(%esp)
  1001bb:	e8 10 2b 00 00       	call   102cd0 <proc_ready>
	}

	
	proc_sched();
  1001c0:	e8 63 2d 00 00       	call   102f28 <proc_sched>

001001c5 <user>:
// This is the first function that gets run in user mode (ring 3).
// It acts as PIOS's "root process",
// of which all other processes are descendants.
void
user()
{
  1001c5:	55                   	push   %ebp
  1001c6:	89 e5                	mov    %esp,%ebp
  1001c8:	83 ec 28             	sub    $0x28,%esp
	cprintf("in user()\n");
  1001cb:	c7 04 24 16 82 10 00 	movl   $0x108216,(%esp)
  1001d2:	e8 88 79 00 00       	call   107b5f <cprintf>

static gcc_inline uint32_t
read_esp(void)
{
        uint32_t esp;
        __asm __volatile("movl %%esp,%0" : "=rm" (esp));
  1001d7:	89 65 f0             	mov    %esp,-0x10(%ebp)
        return esp;
  1001da:	8b 45 f0             	mov    -0x10(%ebp),%eax
	assert(read_esp() > (uint32_t) &user_stack[0]);
  1001dd:	89 c2                	mov    %eax,%edx
  1001df:	b8 00 90 11 00       	mov    $0x119000,%eax
  1001e4:	39 c2                	cmp    %eax,%edx
  1001e6:	77 24                	ja     10020c <user+0x47>
  1001e8:	c7 44 24 0c 24 82 10 	movl   $0x108224,0xc(%esp)
  1001ef:	00 
  1001f0:	c7 44 24 08 d6 81 10 	movl   $0x1081d6,0x8(%esp)
  1001f7:	00 
  1001f8:	c7 44 24 04 8c 00 00 	movl   $0x8c,0x4(%esp)
  1001ff:	00 
  100200:	c7 04 24 4b 82 10 00 	movl   $0x10824b,(%esp)
  100207:	e8 75 02 00 00       	call   100481 <debug_panic>

static gcc_inline uint32_t
read_esp(void)
{
        uint32_t esp;
        __asm __volatile("movl %%esp,%0" : "=rm" (esp));
  10020c:	89 65 f4             	mov    %esp,-0xc(%ebp)
        return esp;
  10020f:	8b 45 f4             	mov    -0xc(%ebp),%eax
	assert(read_esp() < (uint32_t) &user_stack[sizeof(user_stack)]);
  100212:	89 c2                	mov    %eax,%edx
  100214:	b8 00 a0 11 00       	mov    $0x11a000,%eax
  100219:	39 c2                	cmp    %eax,%edx
  10021b:	72 24                	jb     100241 <user+0x7c>
  10021d:	c7 44 24 0c 58 82 10 	movl   $0x108258,0xc(%esp)
  100224:	00 
  100225:	c7 44 24 08 d6 81 10 	movl   $0x1081d6,0x8(%esp)
  10022c:	00 
  10022d:	c7 44 24 04 8d 00 00 	movl   $0x8d,0x4(%esp)
  100234:	00 
  100235:	c7 04 24 4b 82 10 00 	movl   $0x10824b,(%esp)
  10023c:	e8 40 02 00 00       	call   100481 <debug_panic>


	done();
  100241:	e8 00 00 00 00       	call   100246 <done>

00100246 <done>:
// it just puts the processor into an infinite loop.
// We make this a function so that we can set a breakpoints on it.
// Our grade scripts use this breakpoint to know when to stop QEMU.
void gcc_noreturn
done()
{
  100246:	55                   	push   %ebp
  100247:	89 e5                	mov    %esp,%ebp
	while (1)
		;	// just spin
  100249:	eb fe                	jmp    100249 <done+0x3>

0010024b <cpu_cur>:
#define cpu_disabled(c)		0

// Find the CPU struct representing the current CPU.
// It always resides at the bottom of the page containing the CPU's stack.
static inline cpu *
cpu_cur() {
  10024b:	55                   	push   %ebp
  10024c:	89 e5                	mov    %esp,%ebp
  10024e:	83 ec 28             	sub    $0x28,%esp

static gcc_inline uint32_t
read_esp(void)
{
        uint32_t esp;
        __asm __volatile("movl %%esp,%0" : "=rm" (esp));
  100251:	89 65 f4             	mov    %esp,-0xc(%ebp)
        return esp;
  100254:	8b 45 f4             	mov    -0xc(%ebp),%eax
	cpu *c = (cpu*)ROUNDDOWN(read_esp(), PAGESIZE);
  100257:	89 45 f0             	mov    %eax,-0x10(%ebp)
  10025a:	8b 45 f0             	mov    -0x10(%ebp),%eax
  10025d:	25 00 f0 ff ff       	and    $0xfffff000,%eax
  100262:	89 45 ec             	mov    %eax,-0x14(%ebp)
	assert(c->magic == CPU_MAGIC);
  100265:	8b 45 ec             	mov    -0x14(%ebp),%eax
  100268:	8b 80 b8 00 00 00    	mov    0xb8(%eax),%eax
  10026e:	3d 32 54 76 98       	cmp    $0x98765432,%eax
  100273:	74 24                	je     100299 <cpu_cur+0x4e>
  100275:	c7 44 24 0c 90 82 10 	movl   $0x108290,0xc(%esp)
  10027c:	00 
  10027d:	c7 44 24 08 a6 82 10 	movl   $0x1082a6,0x8(%esp)
  100284:	00 
  100285:	c7 44 24 04 5c 00 00 	movl   $0x5c,0x4(%esp)
  10028c:	00 
  10028d:	c7 04 24 bb 82 10 00 	movl   $0x1082bb,(%esp)
  100294:	e8 e8 01 00 00       	call   100481 <debug_panic>
	return c;
  100299:	8b 45 ec             	mov    -0x14(%ebp),%eax
}
  10029c:	c9                   	leave  
  10029d:	c3                   	ret    

0010029e <cpu_onboot>:

// Returns true if we're running on the bootstrap CPU.
static inline int
cpu_onboot() {
  10029e:	55                   	push   %ebp
  10029f:	89 e5                	mov    %esp,%ebp
  1002a1:	83 ec 08             	sub    $0x8,%esp
	return cpu_cur() == &cpu_boot;
  1002a4:	e8 a2 ff ff ff       	call   10024b <cpu_cur>
  1002a9:	3d 00 b0 10 00       	cmp    $0x10b000,%eax
  1002ae:	0f 94 c0             	sete   %al
  1002b1:	0f b6 c0             	movzbl %al,%eax
}
  1002b4:	c9                   	leave  
  1002b5:	c3                   	ret    

001002b6 <cons_intr>:

// called by device interrupt routines to feed input characters
// into the circular console input buffer.
void
cons_intr(int (*proc)(void))
{
  1002b6:	55                   	push   %ebp
  1002b7:	89 e5                	mov    %esp,%ebp
  1002b9:	83 ec 28             	sub    $0x28,%esp
	int c;

	spinlock_acquire(&cons_lock);
  1002bc:	c7 04 24 c0 ec 11 00 	movl   $0x11ecc0,(%esp)
  1002c3:	e8 45 20 00 00       	call   10230d <spinlock_acquire>
	while ((c = (*proc)()) != -1) {
  1002c8:	eb 35                	jmp    1002ff <cons_intr+0x49>
		if (c == 0)
  1002ca:	83 7d f4 00          	cmpl   $0x0,-0xc(%ebp)
  1002ce:	74 2e                	je     1002fe <cons_intr+0x48>
			continue;
		cons.buf[cons.wpos++] = c;
  1002d0:	a1 04 a2 11 00       	mov    0x11a204,%eax
  1002d5:	8b 55 f4             	mov    -0xc(%ebp),%edx
  1002d8:	88 90 00 a0 11 00    	mov    %dl,0x11a000(%eax)
  1002de:	83 c0 01             	add    $0x1,%eax
  1002e1:	a3 04 a2 11 00       	mov    %eax,0x11a204
		if (cons.wpos == CONSBUFSIZE)
  1002e6:	a1 04 a2 11 00       	mov    0x11a204,%eax
  1002eb:	3d 00 02 00 00       	cmp    $0x200,%eax
  1002f0:	75 0d                	jne    1002ff <cons_intr+0x49>
			cons.wpos = 0;
  1002f2:	c7 05 04 a2 11 00 00 	movl   $0x0,0x11a204
  1002f9:	00 00 00 
  1002fc:	eb 01                	jmp    1002ff <cons_intr+0x49>
	int c;

	spinlock_acquire(&cons_lock);
	while ((c = (*proc)()) != -1) {
		if (c == 0)
			continue;
  1002fe:	90                   	nop
cons_intr(int (*proc)(void))
{
	int c;

	spinlock_acquire(&cons_lock);
	while ((c = (*proc)()) != -1) {
  1002ff:	8b 45 08             	mov    0x8(%ebp),%eax
  100302:	ff d0                	call   *%eax
  100304:	89 45 f4             	mov    %eax,-0xc(%ebp)
  100307:	83 7d f4 ff          	cmpl   $0xffffffff,-0xc(%ebp)
  10030b:	75 bd                	jne    1002ca <cons_intr+0x14>
			continue;
		cons.buf[cons.wpos++] = c;
		if (cons.wpos == CONSBUFSIZE)
			cons.wpos = 0;
	}
	spinlock_release(&cons_lock);
  10030d:	c7 04 24 c0 ec 11 00 	movl   $0x11ecc0,(%esp)
  100314:	e8 61 20 00 00       	call   10237a <spinlock_release>

}
  100319:	c9                   	leave  
  10031a:	c3                   	ret    

0010031b <cons_getc>:

// return the next input character from the console, or 0 if none waiting
int
cons_getc(void)
{
  10031b:	55                   	push   %ebp
  10031c:	89 e5                	mov    %esp,%ebp
  10031e:	83 ec 18             	sub    $0x18,%esp
	int c;

	// poll for any pending input characters,
	// so that this function works even when interrupts are disabled
	// (e.g., when called from the kernel monitor).
	serial_intr();
  100321:	e8 d6 67 00 00       	call   106afc <serial_intr>
	kbd_intr();
  100326:	e8 2c 67 00 00       	call   106a57 <kbd_intr>

	// grab the next character from the input buffer.
	if (cons.rpos != cons.wpos) {
  10032b:	8b 15 00 a2 11 00    	mov    0x11a200,%edx
  100331:	a1 04 a2 11 00       	mov    0x11a204,%eax
  100336:	39 c2                	cmp    %eax,%edx
  100338:	74 35                	je     10036f <cons_getc+0x54>
		c = cons.buf[cons.rpos++];
  10033a:	a1 00 a2 11 00       	mov    0x11a200,%eax
  10033f:	0f b6 90 00 a0 11 00 	movzbl 0x11a000(%eax),%edx
  100346:	0f b6 d2             	movzbl %dl,%edx
  100349:	89 55 f4             	mov    %edx,-0xc(%ebp)
  10034c:	83 c0 01             	add    $0x1,%eax
  10034f:	a3 00 a2 11 00       	mov    %eax,0x11a200
		if (cons.rpos == CONSBUFSIZE)
  100354:	a1 00 a2 11 00       	mov    0x11a200,%eax
  100359:	3d 00 02 00 00       	cmp    $0x200,%eax
  10035e:	75 0a                	jne    10036a <cons_getc+0x4f>
			cons.rpos = 0;
  100360:	c7 05 00 a2 11 00 00 	movl   $0x0,0x11a200
  100367:	00 00 00 
		return c;
  10036a:	8b 45 f4             	mov    -0xc(%ebp),%eax
  10036d:	eb 05                	jmp    100374 <cons_getc+0x59>
	}
	return 0;
  10036f:	b8 00 00 00 00       	mov    $0x0,%eax
}
  100374:	c9                   	leave  
  100375:	c3                   	ret    

00100376 <cons_putc>:

// output a character to the console
static void
cons_putc(int c)
{
  100376:	55                   	push   %ebp
  100377:	89 e5                	mov    %esp,%ebp
  100379:	83 ec 18             	sub    $0x18,%esp
	serial_putc(c);
  10037c:	8b 45 08             	mov    0x8(%ebp),%eax
  10037f:	89 04 24             	mov    %eax,(%esp)
  100382:	e8 92 67 00 00       	call   106b19 <serial_putc>
	video_putc(c);
  100387:	8b 45 08             	mov    0x8(%ebp),%eax
  10038a:	89 04 24             	mov    %eax,(%esp)
  10038d:	e8 24 63 00 00       	call   1066b6 <video_putc>
}
  100392:	c9                   	leave  
  100393:	c3                   	ret    

00100394 <cons_init>:

// initialize the console devices
void
cons_init(void)
{
  100394:	55                   	push   %ebp
  100395:	89 e5                	mov    %esp,%ebp
  100397:	83 ec 18             	sub    $0x18,%esp
	if (!cpu_onboot())	// only do once, on the boot CPU
  10039a:	e8 ff fe ff ff       	call   10029e <cpu_onboot>
  10039f:	85 c0                	test   %eax,%eax
  1003a1:	74 52                	je     1003f5 <cons_init+0x61>
		return;

	spinlock_init(&cons_lock);
  1003a3:	c7 44 24 08 6a 00 00 	movl   $0x6a,0x8(%esp)
  1003aa:	00 
  1003ab:	c7 44 24 04 c8 82 10 	movl   $0x1082c8,0x4(%esp)
  1003b2:	00 
  1003b3:	c7 04 24 c0 ec 11 00 	movl   $0x11ecc0,(%esp)
  1003ba:	e8 1a 1f 00 00       	call   1022d9 <spinlock_init_>
	video_init();
  1003bf:	e8 26 62 00 00       	call   1065ea <video_init>
	kbd_init();
  1003c4:	e8 a2 66 00 00       	call   106a6b <kbd_init>
	serial_init();
  1003c9:	e8 b0 67 00 00       	call   106b7e <serial_init>

	if (!serial_exists)
  1003ce:	a1 00 20 32 00       	mov    0x322000,%eax
  1003d3:	85 c0                	test   %eax,%eax
  1003d5:	75 1f                	jne    1003f6 <cons_init+0x62>
		warn("Serial port does not exist!\n");
  1003d7:	c7 44 24 08 d4 82 10 	movl   $0x1082d4,0x8(%esp)
  1003de:	00 
  1003df:	c7 44 24 04 70 00 00 	movl   $0x70,0x4(%esp)
  1003e6:	00 
  1003e7:	c7 04 24 c8 82 10 00 	movl   $0x1082c8,(%esp)
  1003ee:	e8 4d 01 00 00       	call   100540 <debug_warn>
  1003f3:	eb 01                	jmp    1003f6 <cons_init+0x62>
// initialize the console devices
void
cons_init(void)
{
	if (!cpu_onboot())	// only do once, on the boot CPU
		return;
  1003f5:	90                   	nop
	kbd_init();
	serial_init();

	if (!serial_exists)
		warn("Serial port does not exist!\n");
}
  1003f6:	c9                   	leave  
  1003f7:	c3                   	ret    

001003f8 <cputs>:


// `High'-level console I/O.  Used by readline and cprintf.
void
cputs(const char *str)
{
  1003f8:	55                   	push   %ebp
  1003f9:	89 e5                	mov    %esp,%ebp
  1003fb:	53                   	push   %ebx
  1003fc:	83 ec 24             	sub    $0x24,%esp

static gcc_inline uint16_t
read_cs(void)
{
        uint16_t cs;
        __asm __volatile("movw %%cs,%0" : "=rm" (cs));
  1003ff:	8c 4d f2             	mov    %cs,-0xe(%ebp)
        return cs;
  100402:	0f b7 45 f2          	movzwl -0xe(%ebp),%eax
	if (read_cs() & 3)
  100406:	0f b7 c0             	movzwl %ax,%eax
  100409:	83 e0 03             	and    $0x3,%eax
  10040c:	85 c0                	test   %eax,%eax
  10040e:	74 14                	je     100424 <cputs+0x2c>
  100410:	8b 45 08             	mov    0x8(%ebp),%eax
  100413:	89 45 f4             	mov    %eax,-0xc(%ebp)
	// 
	// The last clause tells the assembler that this can
	// potentially change the condition codes and arbitrary
	// memory locations.

	asm volatile("int %0" :
  100416:	b8 00 00 00 00       	mov    $0x0,%eax
  10041b:	8b 55 f4             	mov    -0xc(%ebp),%edx
  10041e:	89 d3                	mov    %edx,%ebx
  100420:	cd 30                	int    $0x30
		return sys_cputs(str);	// use syscall from user mode
  100422:	eb 57                	jmp    10047b <cputs+0x83>

	// Hold the console spinlock while printing the entire string,
	// so that the output of different cputs calls won't get mixed.
	// Implement ad hoc recursive locking for debugging convenience.
	bool already = spinlock_holding(&cons_lock);
  100424:	c7 04 24 c0 ec 11 00 	movl   $0x11ecc0,(%esp)
  10042b:	e8 a4 1f 00 00       	call   1023d4 <spinlock_holding>
  100430:	89 45 ec             	mov    %eax,-0x14(%ebp)
	if (!already)
  100433:	83 7d ec 00          	cmpl   $0x0,-0x14(%ebp)
  100437:	75 25                	jne    10045e <cputs+0x66>
		spinlock_acquire(&cons_lock);
  100439:	c7 04 24 c0 ec 11 00 	movl   $0x11ecc0,(%esp)
  100440:	e8 c8 1e 00 00       	call   10230d <spinlock_acquire>

	char ch;
	while (*str)
  100445:	eb 18                	jmp    10045f <cputs+0x67>
		cons_putc(*str++);
  100447:	8b 45 08             	mov    0x8(%ebp),%eax
  10044a:	0f b6 00             	movzbl (%eax),%eax
  10044d:	0f be c0             	movsbl %al,%eax
  100450:	83 45 08 01          	addl   $0x1,0x8(%ebp)
  100454:	89 04 24             	mov    %eax,(%esp)
  100457:	e8 1a ff ff ff       	call   100376 <cons_putc>
  10045c:	eb 01                	jmp    10045f <cputs+0x67>
	bool already = spinlock_holding(&cons_lock);
	if (!already)
		spinlock_acquire(&cons_lock);

	char ch;
	while (*str)
  10045e:	90                   	nop
  10045f:	8b 45 08             	mov    0x8(%ebp),%eax
  100462:	0f b6 00             	movzbl (%eax),%eax
  100465:	84 c0                	test   %al,%al
  100467:	75 de                	jne    100447 <cputs+0x4f>
		cons_putc(*str++);

	if (!already)
  100469:	83 7d ec 00          	cmpl   $0x0,-0x14(%ebp)
  10046d:	75 0c                	jne    10047b <cputs+0x83>
		spinlock_release(&cons_lock);
  10046f:	c7 04 24 c0 ec 11 00 	movl   $0x11ecc0,(%esp)
  100476:	e8 ff 1e 00 00       	call   10237a <spinlock_release>
}
  10047b:	83 c4 24             	add    $0x24,%esp
  10047e:	5b                   	pop    %ebx
  10047f:	5d                   	pop    %ebp
  100480:	c3                   	ret    

00100481 <debug_panic>:

// Panic is called on unresolvable fatal errors.
// It prints "panic: mesg", and then enters the kernel monitor.
void
debug_panic(const char *file, int line, const char *fmt,...)
{
  100481:	55                   	push   %ebp
  100482:	89 e5                	mov    %esp,%ebp
  100484:	83 ec 58             	sub    $0x58,%esp

static gcc_inline uint16_t
read_cs(void)
{
        uint16_t cs;
        __asm __volatile("movw %%cs,%0" : "=rm" (cs));
  100487:	8c 4d f2             	mov    %cs,-0xe(%ebp)
        return cs;
  10048a:	0f b7 45 f2          	movzwl -0xe(%ebp),%eax
	va_list ap;
	int i;

	// Avoid infinite recursion if we're panicking from kernel mode.
	if ((read_cs() & 3) == 0) {
  10048e:	0f b7 c0             	movzwl %ax,%eax
  100491:	83 e0 03             	and    $0x3,%eax
  100494:	85 c0                	test   %eax,%eax
  100496:	75 15                	jne    1004ad <debug_panic+0x2c>
		if (panicstr)
  100498:	a1 08 a2 11 00       	mov    0x11a208,%eax
  10049d:	85 c0                	test   %eax,%eax
  10049f:	0f 85 95 00 00 00    	jne    10053a <debug_panic+0xb9>
			goto dead;
		panicstr = fmt;
  1004a5:	8b 45 10             	mov    0x10(%ebp),%eax
  1004a8:	a3 08 a2 11 00       	mov    %eax,0x11a208
	}

	// First print the requested message
	va_start(ap, fmt);
  1004ad:	8d 45 10             	lea    0x10(%ebp),%eax
  1004b0:	83 c0 04             	add    $0x4,%eax
  1004b3:	89 45 e8             	mov    %eax,-0x18(%ebp)
	cprintf("kernel panic at %s:%d: ", file, line);
  1004b6:	8b 45 0c             	mov    0xc(%ebp),%eax
  1004b9:	89 44 24 08          	mov    %eax,0x8(%esp)
  1004bd:	8b 45 08             	mov    0x8(%ebp),%eax
  1004c0:	89 44 24 04          	mov    %eax,0x4(%esp)
  1004c4:	c7 04 24 f1 82 10 00 	movl   $0x1082f1,(%esp)
  1004cb:	e8 8f 76 00 00       	call   107b5f <cprintf>
	vcprintf(fmt, ap);
  1004d0:	8b 45 10             	mov    0x10(%ebp),%eax
  1004d3:	8b 55 e8             	mov    -0x18(%ebp),%edx
  1004d6:	89 54 24 04          	mov    %edx,0x4(%esp)
  1004da:	89 04 24             	mov    %eax,(%esp)
  1004dd:	e8 14 76 00 00       	call   107af6 <vcprintf>
	cprintf("\n");
  1004e2:	c7 04 24 09 83 10 00 	movl   $0x108309,(%esp)
  1004e9:	e8 71 76 00 00       	call   107b5f <cprintf>

static gcc_inline uint32_t
read_ebp(void)
{
        uint32_t ebp;
        __asm __volatile("movl %%ebp,%0" : "=rm" (ebp));
  1004ee:	89 6d f4             	mov    %ebp,-0xc(%ebp)
        return ebp;
  1004f1:	8b 45 f4             	mov    -0xc(%ebp),%eax
	va_end(ap);

	// Then print a backtrace of the kernel call chain
	uint32_t eips[DEBUG_TRACEFRAMES];
	debug_trace(read_ebp(), eips);
  1004f4:	8d 55 c0             	lea    -0x40(%ebp),%edx
  1004f7:	89 54 24 04          	mov    %edx,0x4(%esp)
  1004fb:	89 04 24             	mov    %eax,(%esp)
  1004fe:	e8 86 00 00 00       	call   100589 <debug_trace>
	for (i = 0; i < DEBUG_TRACEFRAMES && eips[i] != 0; i++)
  100503:	c7 45 ec 00 00 00 00 	movl   $0x0,-0x14(%ebp)
  10050a:	eb 1b                	jmp    100527 <debug_panic+0xa6>
		cprintf("  from %08x\n", eips[i]);
  10050c:	8b 45 ec             	mov    -0x14(%ebp),%eax
  10050f:	8b 44 85 c0          	mov    -0x40(%ebp,%eax,4),%eax
  100513:	89 44 24 04          	mov    %eax,0x4(%esp)
  100517:	c7 04 24 0b 83 10 00 	movl   $0x10830b,(%esp)
  10051e:	e8 3c 76 00 00       	call   107b5f <cprintf>
	va_end(ap);

	// Then print a backtrace of the kernel call chain
	uint32_t eips[DEBUG_TRACEFRAMES];
	debug_trace(read_ebp(), eips);
	for (i = 0; i < DEBUG_TRACEFRAMES && eips[i] != 0; i++)
  100523:	83 45 ec 01          	addl   $0x1,-0x14(%ebp)
  100527:	83 7d ec 09          	cmpl   $0x9,-0x14(%ebp)
  10052b:	7f 0e                	jg     10053b <debug_panic+0xba>
  10052d:	8b 45 ec             	mov    -0x14(%ebp),%eax
  100530:	8b 44 85 c0          	mov    -0x40(%ebp,%eax,4),%eax
  100534:	85 c0                	test   %eax,%eax
  100536:	75 d4                	jne    10050c <debug_panic+0x8b>
  100538:	eb 01                	jmp    10053b <debug_panic+0xba>
	int i;

	// Avoid infinite recursion if we're panicking from kernel mode.
	if ((read_cs() & 3) == 0) {
		if (panicstr)
			goto dead;
  10053a:	90                   	nop
	debug_trace(read_ebp(), eips);
	for (i = 0; i < DEBUG_TRACEFRAMES && eips[i] != 0; i++)
		cprintf("  from %08x\n", eips[i]);

dead:
	done();		// enter infinite loop (see kern/init.c)
  10053b:	e8 06 fd ff ff       	call   100246 <done>

00100540 <debug_warn>:
}

/* like panic, but don't */
void
debug_warn(const char *file, int line, const char *fmt,...)
{
  100540:	55                   	push   %ebp
  100541:	89 e5                	mov    %esp,%ebp
  100543:	83 ec 28             	sub    $0x28,%esp
	va_list ap;

	va_start(ap, fmt);
  100546:	8d 45 10             	lea    0x10(%ebp),%eax
  100549:	83 c0 04             	add    $0x4,%eax
  10054c:	89 45 f4             	mov    %eax,-0xc(%ebp)
	cprintf("kernel warning at %s:%d: ", file, line);
  10054f:	8b 45 0c             	mov    0xc(%ebp),%eax
  100552:	89 44 24 08          	mov    %eax,0x8(%esp)
  100556:	8b 45 08             	mov    0x8(%ebp),%eax
  100559:	89 44 24 04          	mov    %eax,0x4(%esp)
  10055d:	c7 04 24 18 83 10 00 	movl   $0x108318,(%esp)
  100564:	e8 f6 75 00 00       	call   107b5f <cprintf>
	vcprintf(fmt, ap);
  100569:	8b 45 10             	mov    0x10(%ebp),%eax
  10056c:	8b 55 f4             	mov    -0xc(%ebp),%edx
  10056f:	89 54 24 04          	mov    %edx,0x4(%esp)
  100573:	89 04 24             	mov    %eax,(%esp)
  100576:	e8 7b 75 00 00       	call   107af6 <vcprintf>
	cprintf("\n");
  10057b:	c7 04 24 09 83 10 00 	movl   $0x108309,(%esp)
  100582:	e8 d8 75 00 00       	call   107b5f <cprintf>
	va_end(ap);
}
  100587:	c9                   	leave  
  100588:	c3                   	ret    

00100589 <debug_trace>:

// Riecord the current call stack in eips[] by following the %ebp chain.
void gcc_noinline
debug_trace(uint32_t ebp, uint32_t eips[DEBUG_TRACEFRAMES])
{
  100589:	55                   	push   %ebp
  10058a:	89 e5                	mov    %esp,%ebp
  10058c:	83 ec 10             	sub    $0x10,%esp

	return;*/
	//panic("debug_trace not implemented");

	int i ,j;
	uint32_t *cur_epb = (uint32_t *)ebp;
  10058f:	8b 45 08             	mov    0x8(%ebp),%eax
  100592:	89 45 fc             	mov    %eax,-0x4(%ebp)
	//cprintf("Stack backtrace:\n");
	for(i = 0; i < DEBUG_TRACEFRAMES && cur_epb > 0; i++) {
  100595:	c7 45 f4 00 00 00 00 	movl   $0x0,-0xc(%ebp)
  10059c:	eb 32                	jmp    1005d0 <debug_trace+0x47>
		//cprintf("  ebp %08x eip %08x args",cur_epb[0],cur_epb[1]);
		eips[i] = cur_epb[1];
  10059e:	8b 45 f4             	mov    -0xc(%ebp),%eax
  1005a1:	c1 e0 02             	shl    $0x2,%eax
  1005a4:	03 45 0c             	add    0xc(%ebp),%eax
  1005a7:	8b 55 fc             	mov    -0x4(%ebp),%edx
  1005aa:	83 c2 04             	add    $0x4,%edx
  1005ad:	8b 12                	mov    (%edx),%edx
  1005af:	89 10                	mov    %edx,(%eax)
		for(j = 0; j < 5; j++) {
  1005b1:	c7 45 f8 00 00 00 00 	movl   $0x0,-0x8(%ebp)
  1005b8:	eb 04                	jmp    1005be <debug_trace+0x35>
  1005ba:	83 45 f8 01          	addl   $0x1,-0x8(%ebp)
  1005be:	83 7d f8 04          	cmpl   $0x4,-0x8(%ebp)
  1005c2:	7e f6                	jle    1005ba <debug_trace+0x31>
			//makecprintf(" %08x",cur_epb[2 + j]);
		}
		//cprintf("\n");make
		cur_epb = (uint32_t *)(*cur_epb);
  1005c4:	8b 45 fc             	mov    -0x4(%ebp),%eax
  1005c7:	8b 00                	mov    (%eax),%eax
  1005c9:	89 45 fc             	mov    %eax,-0x4(%ebp)
	//panic("debug_trace not implemented");

	int i ,j;
	uint32_t *cur_epb = (uint32_t *)ebp;
	//cprintf("Stack backtrace:\n");
	for(i = 0; i < DEBUG_TRACEFRAMES && cur_epb > 0; i++) {
  1005cc:	83 45 f4 01          	addl   $0x1,-0xc(%ebp)
  1005d0:	83 7d f4 09          	cmpl   $0x9,-0xc(%ebp)
  1005d4:	7f 1b                	jg     1005f1 <debug_trace+0x68>
  1005d6:	83 7d fc 00          	cmpl   $0x0,-0x4(%ebp)
  1005da:	75 c2                	jne    10059e <debug_trace+0x15>
			//makecprintf(" %08x",cur_epb[2 + j]);
		}
		//cprintf("\n");make
		cur_epb = (uint32_t *)(*cur_epb);
	}
	for(; i < DEBUG_TRACEFRAMES ; i++) {
  1005dc:	eb 13                	jmp    1005f1 <debug_trace+0x68>
		eips[i] = 0;
  1005de:	8b 45 f4             	mov    -0xc(%ebp),%eax
  1005e1:	c1 e0 02             	shl    $0x2,%eax
  1005e4:	03 45 0c             	add    0xc(%ebp),%eax
  1005e7:	c7 00 00 00 00 00    	movl   $0x0,(%eax)
			//makecprintf(" %08x",cur_epb[2 + j]);
		}
		//cprintf("\n");make
		cur_epb = (uint32_t *)(*cur_epb);
	}
	for(; i < DEBUG_TRACEFRAMES ; i++) {
  1005ed:	83 45 f4 01          	addl   $0x1,-0xc(%ebp)
  1005f1:	83 7d f4 09          	cmpl   $0x9,-0xc(%ebp)
  1005f5:	7e e7                	jle    1005de <debug_trace+0x55>
		eips[i] = 0;
	}
	/*
	for(i = 0; i < DEBUG_TRACEFRAMES ; i++) {
		cprintf("eip %x\n",eips[i]);			}*/
}
  1005f7:	c9                   	leave  
  1005f8:	c3                   	ret    

001005f9 <f3>:


static void gcc_noinline f3(int r, uint32_t *e) { debug_trace(read_ebp(), e); }
  1005f9:	55                   	push   %ebp
  1005fa:	89 e5                	mov    %esp,%ebp
  1005fc:	83 ec 18             	sub    $0x18,%esp

static gcc_inline uint32_t
read_ebp(void)
{
        uint32_t ebp;
        __asm __volatile("movl %%ebp,%0" : "=rm" (ebp));
  1005ff:	89 6d fc             	mov    %ebp,-0x4(%ebp)
        return ebp;
  100602:	8b 45 fc             	mov    -0x4(%ebp),%eax
  100605:	8b 55 0c             	mov    0xc(%ebp),%edx
  100608:	89 54 24 04          	mov    %edx,0x4(%esp)
  10060c:	89 04 24             	mov    %eax,(%esp)
  10060f:	e8 75 ff ff ff       	call   100589 <debug_trace>
  100614:	c9                   	leave  
  100615:	c3                   	ret    

00100616 <f2>:
static void gcc_noinline f2(int r, uint32_t *e) { r & 2 ? f3(r,e) : f3(r,e); }
  100616:	55                   	push   %ebp
  100617:	89 e5                	mov    %esp,%ebp
  100619:	83 ec 08             	sub    $0x8,%esp
  10061c:	8b 45 08             	mov    0x8(%ebp),%eax
  10061f:	83 e0 02             	and    $0x2,%eax
  100622:	85 c0                	test   %eax,%eax
  100624:	74 14                	je     10063a <f2+0x24>
  100626:	8b 45 0c             	mov    0xc(%ebp),%eax
  100629:	89 44 24 04          	mov    %eax,0x4(%esp)
  10062d:	8b 45 08             	mov    0x8(%ebp),%eax
  100630:	89 04 24             	mov    %eax,(%esp)
  100633:	e8 c1 ff ff ff       	call   1005f9 <f3>
  100638:	eb 12                	jmp    10064c <f2+0x36>
  10063a:	8b 45 0c             	mov    0xc(%ebp),%eax
  10063d:	89 44 24 04          	mov    %eax,0x4(%esp)
  100641:	8b 45 08             	mov    0x8(%ebp),%eax
  100644:	89 04 24             	mov    %eax,(%esp)
  100647:	e8 ad ff ff ff       	call   1005f9 <f3>
  10064c:	c9                   	leave  
  10064d:	c3                   	ret    

0010064e <f1>:
static void gcc_noinline f1(int r, uint32_t *e) { r & 1 ? f2(r,e) : f2(r,e); }
  10064e:	55                   	push   %ebp
  10064f:	89 e5                	mov    %esp,%ebp
  100651:	83 ec 08             	sub    $0x8,%esp
  100654:	8b 45 08             	mov    0x8(%ebp),%eax
  100657:	83 e0 01             	and    $0x1,%eax
  10065a:	84 c0                	test   %al,%al
  10065c:	74 14                	je     100672 <f1+0x24>
  10065e:	8b 45 0c             	mov    0xc(%ebp),%eax
  100661:	89 44 24 04          	mov    %eax,0x4(%esp)
  100665:	8b 45 08             	mov    0x8(%ebp),%eax
  100668:	89 04 24             	mov    %eax,(%esp)
  10066b:	e8 a6 ff ff ff       	call   100616 <f2>
  100670:	eb 12                	jmp    100684 <f1+0x36>
  100672:	8b 45 0c             	mov    0xc(%ebp),%eax
  100675:	89 44 24 04          	mov    %eax,0x4(%esp)
  100679:	8b 45 08             	mov    0x8(%ebp),%eax
  10067c:	89 04 24             	mov    %eax,(%esp)
  10067f:	e8 92 ff ff ff       	call   100616 <f2>
  100684:	c9                   	leave  
  100685:	c3                   	ret    

00100686 <debug_check>:

// Test the backtrace implementation for correct operation
void
debug_check(void)
{
  100686:	55                   	push   %ebp
  100687:	89 e5                	mov    %esp,%ebp
  100689:	81 ec c8 00 00 00    	sub    $0xc8,%esp
	uint32_t eips[4][DEBUG_TRACEFRAMES];
	int r, i;

	// produce several related backtraces...
	for (i = 0; i < 4; i++)
  10068f:	c7 45 f4 00 00 00 00 	movl   $0x0,-0xc(%ebp)
  100696:	eb 29                	jmp    1006c1 <debug_check+0x3b>
		f1(i, eips[i]);
  100698:	8d 8d 50 ff ff ff    	lea    -0xb0(%ebp),%ecx
  10069e:	8b 55 f4             	mov    -0xc(%ebp),%edx
  1006a1:	89 d0                	mov    %edx,%eax
  1006a3:	c1 e0 02             	shl    $0x2,%eax
  1006a6:	01 d0                	add    %edx,%eax
  1006a8:	c1 e0 03             	shl    $0x3,%eax
  1006ab:	8d 04 01             	lea    (%ecx,%eax,1),%eax
  1006ae:	89 44 24 04          	mov    %eax,0x4(%esp)
  1006b2:	8b 45 f4             	mov    -0xc(%ebp),%eax
  1006b5:	89 04 24             	mov    %eax,(%esp)
  1006b8:	e8 91 ff ff ff       	call   10064e <f1>
{
	uint32_t eips[4][DEBUG_TRACEFRAMES];
	int r, i;

	// produce several related backtraces...
	for (i = 0; i < 4; i++)
  1006bd:	83 45 f4 01          	addl   $0x1,-0xc(%ebp)
  1006c1:	83 7d f4 03          	cmpl   $0x3,-0xc(%ebp)
  1006c5:	7e d1                	jle    100698 <debug_check+0x12>
		f1(i, eips[i]);

	// ...and make sure they come out correctly.
	for (r = 0; r < 4; r++)
  1006c7:	c7 45 f0 00 00 00 00 	movl   $0x0,-0x10(%ebp)
  1006ce:	e9 bc 00 00 00       	jmp    10078f <debug_check+0x109>
		for (i = 0; i < DEBUG_TRACEFRAMES; i++) {
  1006d3:	c7 45 f4 00 00 00 00 	movl   $0x0,-0xc(%ebp)
  1006da:	e9 a2 00 00 00       	jmp    100781 <debug_check+0xfb>
			assert((eips[r][i] != 0) == (i < 5));
  1006df:	8b 55 f0             	mov    -0x10(%ebp),%edx
  1006e2:	8b 4d f4             	mov    -0xc(%ebp),%ecx
  1006e5:	89 d0                	mov    %edx,%eax
  1006e7:	c1 e0 02             	shl    $0x2,%eax
  1006ea:	01 d0                	add    %edx,%eax
  1006ec:	01 c0                	add    %eax,%eax
  1006ee:	01 c8                	add    %ecx,%eax
  1006f0:	8b 84 85 50 ff ff ff 	mov    -0xb0(%ebp,%eax,4),%eax
  1006f7:	85 c0                	test   %eax,%eax
  1006f9:	0f 95 c2             	setne  %dl
  1006fc:	83 7d f4 04          	cmpl   $0x4,-0xc(%ebp)
  100700:	0f 9e c0             	setle  %al
  100703:	31 d0                	xor    %edx,%eax
  100705:	84 c0                	test   %al,%al
  100707:	74 24                	je     10072d <debug_check+0xa7>
  100709:	c7 44 24 0c 32 83 10 	movl   $0x108332,0xc(%esp)
  100710:	00 
  100711:	c7 44 24 08 4f 83 10 	movl   $0x10834f,0x8(%esp)
  100718:	00 
  100719:	c7 44 24 04 9d 00 00 	movl   $0x9d,0x4(%esp)
  100720:	00 
  100721:	c7 04 24 64 83 10 00 	movl   $0x108364,(%esp)
  100728:	e8 54 fd ff ff       	call   100481 <debug_panic>
			if (i >= 2)
  10072d:	83 7d f4 01          	cmpl   $0x1,-0xc(%ebp)
  100731:	7e 4a                	jle    10077d <debug_check+0xf7>
				assert(eips[r][i] == eips[0][i]);
  100733:	8b 55 f0             	mov    -0x10(%ebp),%edx
  100736:	8b 4d f4             	mov    -0xc(%ebp),%ecx
  100739:	89 d0                	mov    %edx,%eax
  10073b:	c1 e0 02             	shl    $0x2,%eax
  10073e:	01 d0                	add    %edx,%eax
  100740:	01 c0                	add    %eax,%eax
  100742:	01 c8                	add    %ecx,%eax
  100744:	8b 94 85 50 ff ff ff 	mov    -0xb0(%ebp,%eax,4),%edx
  10074b:	8b 45 f4             	mov    -0xc(%ebp),%eax
  10074e:	8b 84 85 50 ff ff ff 	mov    -0xb0(%ebp,%eax,4),%eax
  100755:	39 c2                	cmp    %eax,%edx
  100757:	74 24                	je     10077d <debug_check+0xf7>
  100759:	c7 44 24 0c 71 83 10 	movl   $0x108371,0xc(%esp)
  100760:	00 
  100761:	c7 44 24 08 4f 83 10 	movl   $0x10834f,0x8(%esp)
  100768:	00 
  100769:	c7 44 24 04 9f 00 00 	movl   $0x9f,0x4(%esp)
  100770:	00 
  100771:	c7 04 24 64 83 10 00 	movl   $0x108364,(%esp)
  100778:	e8 04 fd ff ff       	call   100481 <debug_panic>
	for (i = 0; i < 4; i++)
		f1(i, eips[i]);

	// ...and make sure they come out correctly.
	for (r = 0; r < 4; r++)
		for (i = 0; i < DEBUG_TRACEFRAMES; i++) {
  10077d:	83 45 f4 01          	addl   $0x1,-0xc(%ebp)
  100781:	83 7d f4 09          	cmpl   $0x9,-0xc(%ebp)
  100785:	0f 8e 54 ff ff ff    	jle    1006df <debug_check+0x59>
	// produce several related backtraces...
	for (i = 0; i < 4; i++)
		f1(i, eips[i]);

	// ...and make sure they come out correctly.
	for (r = 0; r < 4; r++)
  10078b:	83 45 f0 01          	addl   $0x1,-0x10(%ebp)
  10078f:	83 7d f0 03          	cmpl   $0x3,-0x10(%ebp)
  100793:	0f 8e 3a ff ff ff    	jle    1006d3 <debug_check+0x4d>
		for (i = 0; i < DEBUG_TRACEFRAMES; i++) {
			assert((eips[r][i] != 0) == (i < 5));
			if (i >= 2)
				assert(eips[r][i] == eips[0][i]);
		}
	assert(eips[0][0] == eips[1][0]);
  100799:	8b 95 50 ff ff ff    	mov    -0xb0(%ebp),%edx
  10079f:	8b 85 78 ff ff ff    	mov    -0x88(%ebp),%eax
  1007a5:	39 c2                	cmp    %eax,%edx
  1007a7:	74 24                	je     1007cd <debug_check+0x147>
  1007a9:	c7 44 24 0c 8a 83 10 	movl   $0x10838a,0xc(%esp)
  1007b0:	00 
  1007b1:	c7 44 24 08 4f 83 10 	movl   $0x10834f,0x8(%esp)
  1007b8:	00 
  1007b9:	c7 44 24 04 a1 00 00 	movl   $0xa1,0x4(%esp)
  1007c0:	00 
  1007c1:	c7 04 24 64 83 10 00 	movl   $0x108364,(%esp)
  1007c8:	e8 b4 fc ff ff       	call   100481 <debug_panic>
	assert(eips[2][0] == eips[3][0]);
  1007cd:	8b 55 a0             	mov    -0x60(%ebp),%edx
  1007d0:	8b 45 c8             	mov    -0x38(%ebp),%eax
  1007d3:	39 c2                	cmp    %eax,%edx
  1007d5:	74 24                	je     1007fb <debug_check+0x175>
  1007d7:	c7 44 24 0c a3 83 10 	movl   $0x1083a3,0xc(%esp)
  1007de:	00 
  1007df:	c7 44 24 08 4f 83 10 	movl   $0x10834f,0x8(%esp)
  1007e6:	00 
  1007e7:	c7 44 24 04 a2 00 00 	movl   $0xa2,0x4(%esp)
  1007ee:	00 
  1007ef:	c7 04 24 64 83 10 00 	movl   $0x108364,(%esp)
  1007f6:	e8 86 fc ff ff       	call   100481 <debug_panic>
	assert(eips[1][0] != eips[2][0]);
  1007fb:	8b 95 78 ff ff ff    	mov    -0x88(%ebp),%edx
  100801:	8b 45 a0             	mov    -0x60(%ebp),%eax
  100804:	39 c2                	cmp    %eax,%edx
  100806:	75 24                	jne    10082c <debug_check+0x1a6>
  100808:	c7 44 24 0c bc 83 10 	movl   $0x1083bc,0xc(%esp)
  10080f:	00 
  100810:	c7 44 24 08 4f 83 10 	movl   $0x10834f,0x8(%esp)
  100817:	00 
  100818:	c7 44 24 04 a3 00 00 	movl   $0xa3,0x4(%esp)
  10081f:	00 
  100820:	c7 04 24 64 83 10 00 	movl   $0x108364,(%esp)
  100827:	e8 55 fc ff ff       	call   100481 <debug_panic>
	assert(eips[0][1] == eips[2][1]);
  10082c:	8b 95 54 ff ff ff    	mov    -0xac(%ebp),%edx
  100832:	8b 45 a4             	mov    -0x5c(%ebp),%eax
  100835:	39 c2                	cmp    %eax,%edx
  100837:	74 24                	je     10085d <debug_check+0x1d7>
  100839:	c7 44 24 0c d5 83 10 	movl   $0x1083d5,0xc(%esp)
  100840:	00 
  100841:	c7 44 24 08 4f 83 10 	movl   $0x10834f,0x8(%esp)
  100848:	00 
  100849:	c7 44 24 04 a4 00 00 	movl   $0xa4,0x4(%esp)
  100850:	00 
  100851:	c7 04 24 64 83 10 00 	movl   $0x108364,(%esp)
  100858:	e8 24 fc ff ff       	call   100481 <debug_panic>
	assert(eips[1][1] == eips[3][1]);
  10085d:	8b 95 7c ff ff ff    	mov    -0x84(%ebp),%edx
  100863:	8b 45 cc             	mov    -0x34(%ebp),%eax
  100866:	39 c2                	cmp    %eax,%edx
  100868:	74 24                	je     10088e <debug_check+0x208>
  10086a:	c7 44 24 0c ee 83 10 	movl   $0x1083ee,0xc(%esp)
  100871:	00 
  100872:	c7 44 24 08 4f 83 10 	movl   $0x10834f,0x8(%esp)
  100879:	00 
  10087a:	c7 44 24 04 a5 00 00 	movl   $0xa5,0x4(%esp)
  100881:	00 
  100882:	c7 04 24 64 83 10 00 	movl   $0x108364,(%esp)
  100889:	e8 f3 fb ff ff       	call   100481 <debug_panic>
	assert(eips[0][1] != eips[1][1]);
  10088e:	8b 95 54 ff ff ff    	mov    -0xac(%ebp),%edx
  100894:	8b 85 7c ff ff ff    	mov    -0x84(%ebp),%eax
  10089a:	39 c2                	cmp    %eax,%edx
  10089c:	75 24                	jne    1008c2 <debug_check+0x23c>
  10089e:	c7 44 24 0c 07 84 10 	movl   $0x108407,0xc(%esp)
  1008a5:	00 
  1008a6:	c7 44 24 08 4f 83 10 	movl   $0x10834f,0x8(%esp)
  1008ad:	00 
  1008ae:	c7 44 24 04 a6 00 00 	movl   $0xa6,0x4(%esp)
  1008b5:	00 
  1008b6:	c7 04 24 64 83 10 00 	movl   $0x108364,(%esp)
  1008bd:	e8 bf fb ff ff       	call   100481 <debug_panic>

	cprintf("debug_check() succeeded!\n");
  1008c2:	c7 04 24 20 84 10 00 	movl   $0x108420,(%esp)
  1008c9:	e8 91 72 00 00       	call   107b5f <cprintf>
}
  1008ce:	c9                   	leave  
  1008cf:	c3                   	ret    

001008d0 <cpu_cur>:
#define cpu_disabled(c)		0

// Find the CPU struct representing the current CPU.
// It always resides at the bottom of the page containing the CPU's stack.
static inline cpu *
cpu_cur() {
  1008d0:	55                   	push   %ebp
  1008d1:	89 e5                	mov    %esp,%ebp
  1008d3:	83 ec 28             	sub    $0x28,%esp

static gcc_inline uint32_t
read_esp(void)
{
        uint32_t esp;
        __asm __volatile("movl %%esp,%0" : "=rm" (esp));
  1008d6:	89 65 f4             	mov    %esp,-0xc(%ebp)
        return esp;
  1008d9:	8b 45 f4             	mov    -0xc(%ebp),%eax
	cpu *c = (cpu*)ROUNDDOWN(read_esp(), PAGESIZE);
  1008dc:	89 45 f0             	mov    %eax,-0x10(%ebp)
  1008df:	8b 45 f0             	mov    -0x10(%ebp),%eax
  1008e2:	25 00 f0 ff ff       	and    $0xfffff000,%eax
  1008e7:	89 45 ec             	mov    %eax,-0x14(%ebp)
	assert(c->magic == CPU_MAGIC);
  1008ea:	8b 45 ec             	mov    -0x14(%ebp),%eax
  1008ed:	8b 80 b8 00 00 00    	mov    0xb8(%eax),%eax
  1008f3:	3d 32 54 76 98       	cmp    $0x98765432,%eax
  1008f8:	74 24                	je     10091e <cpu_cur+0x4e>
  1008fa:	c7 44 24 0c 3c 84 10 	movl   $0x10843c,0xc(%esp)
  100901:	00 
  100902:	c7 44 24 08 52 84 10 	movl   $0x108452,0x8(%esp)
  100909:	00 
  10090a:	c7 44 24 04 5c 00 00 	movl   $0x5c,0x4(%esp)
  100911:	00 
  100912:	c7 04 24 67 84 10 00 	movl   $0x108467,(%esp)
  100919:	e8 63 fb ff ff       	call   100481 <debug_panic>
	return c;
  10091e:	8b 45 ec             	mov    -0x14(%ebp),%eax
}
  100921:	c9                   	leave  
  100922:	c3                   	ret    

00100923 <cpu_onboot>:

// Returns true if we're running on the bootstrap CPU.
static inline int
cpu_onboot() {
  100923:	55                   	push   %ebp
  100924:	89 e5                	mov    %esp,%ebp
  100926:	83 ec 08             	sub    $0x8,%esp
	return cpu_cur() == &cpu_boot;
  100929:	e8 a2 ff ff ff       	call   1008d0 <cpu_cur>
  10092e:	3d 00 b0 10 00       	cmp    $0x10b000,%eax
  100933:	0f 94 c0             	sete   %al
  100936:	0f b6 c0             	movzbl %al,%eax
}
  100939:	c9                   	leave  
  10093a:	c3                   	ret    

0010093b <mem_init>:

void mem_check(void);

void
mem_init(void)
{
  10093b:	55                   	push   %ebp
  10093c:	89 e5                	mov    %esp,%ebp
  10093e:	83 ec 38             	sub    $0x38,%esp
	if (!cpu_onboot())	// only do once, on the boot CPU
  100941:	e8 dd ff ff ff       	call   100923 <cpu_onboot>
  100946:	85 c0                	test   %eax,%eax
  100948:	0f 84 bc 01 00 00    	je     100b0a <mem_init+0x1cf>
		return;

	
	spinlock_init(&mem_spinlock);
  10094e:	c7 44 24 08 2e 00 00 	movl   $0x2e,0x8(%esp)
  100955:	00 
  100956:	c7 44 24 04 74 84 10 	movl   $0x108474,0x4(%esp)
  10095d:	00 
  10095e:	c7 04 24 20 ed 31 00 	movl   $0x31ed20,(%esp)
  100965:	e8 6f 19 00 00       	call   1022d9 <spinlock_init_>
	// is available in the system (in bytes),
	// by reading the PC's BIOS-managed nonvolatile RAM (NVRAM).
	// The NVRAM tells us how many kilobytes there are.
	// Since the count is 16 bits, this gives us up to 64MB of RAM;
	// additional RAM beyond that would have to be detected another way.
	size_t basemem = ROUNDDOWN(nvram_read16(NVRAM_BASELO)*1024, PAGESIZE);
  10096a:	c7 04 24 15 00 00 00 	movl   $0x15,(%esp)
  100971:	e8 df 64 00 00       	call   106e55 <nvram_read16>
  100976:	c1 e0 0a             	shl    $0xa,%eax
  100979:	89 45 f0             	mov    %eax,-0x10(%ebp)
  10097c:	8b 45 f0             	mov    -0x10(%ebp),%eax
  10097f:	25 00 f0 ff ff       	and    $0xfffff000,%eax
  100984:	89 45 dc             	mov    %eax,-0x24(%ebp)
	size_t extmem = ROUNDDOWN(nvram_read16(NVRAM_EXTLO)*1024, PAGESIZE);
  100987:	c7 04 24 17 00 00 00 	movl   $0x17,(%esp)
  10098e:	e8 c2 64 00 00       	call   106e55 <nvram_read16>
  100993:	c1 e0 0a             	shl    $0xa,%eax
  100996:	89 45 f4             	mov    %eax,-0xc(%ebp)
  100999:	8b 45 f4             	mov    -0xc(%ebp),%eax
  10099c:	25 00 f0 ff ff       	and    $0xfffff000,%eax
  1009a1:	89 45 e0             	mov    %eax,-0x20(%ebp)

	warn("Assuming we have 1GB of memory!");
  1009a4:	c7 44 24 08 80 84 10 	movl   $0x108480,0x8(%esp)
  1009ab:	00 
  1009ac:	c7 44 24 04 39 00 00 	movl   $0x39,0x4(%esp)
  1009b3:	00 
  1009b4:	c7 04 24 74 84 10 00 	movl   $0x108474,(%esp)
  1009bb:	e8 80 fb ff ff       	call   100540 <debug_warn>
	extmem = 1024*1024*1024 - MEM_EXT;	// assume 1GB total memory
  1009c0:	c7 45 e0 00 00 f0 3f 	movl   $0x3ff00000,-0x20(%ebp)

	// The maximum physical address is the top of extended memory.
	mem_max = MEM_EXT + extmem;
  1009c7:	8b 45 e0             	mov    -0x20(%ebp),%eax
  1009ca:	05 00 00 10 00       	add    $0x100000,%eax
  1009cf:	a3 08 ed 11 00       	mov    %eax,0x11ed08

	// Compute the total number of physical pages (including I/O holes)
	mem_npage = mem_max / PAGESIZE;
  1009d4:	a1 08 ed 11 00       	mov    0x11ed08,%eax
  1009d9:	c1 e8 0c             	shr    $0xc,%eax
  1009dc:	a3 04 ed 11 00       	mov    %eax,0x11ed04

	cprintf("Physical memory: %dK available, ", (int)(mem_max/1024));
  1009e1:	a1 08 ed 11 00       	mov    0x11ed08,%eax
  1009e6:	c1 e8 0a             	shr    $0xa,%eax
  1009e9:	89 44 24 04          	mov    %eax,0x4(%esp)
  1009ed:	c7 04 24 a0 84 10 00 	movl   $0x1084a0,(%esp)
  1009f4:	e8 66 71 00 00       	call   107b5f <cprintf>
	cprintf("base = %dK, extended = %dK\n",
		(int)(basemem/1024), (int)(extmem/1024));
  1009f9:	8b 45 e0             	mov    -0x20(%ebp),%eax
  1009fc:	c1 e8 0a             	shr    $0xa,%eax

	// Compute the total number of physical pages (including I/O holes)
	mem_npage = mem_max / PAGESIZE;

	cprintf("Physical memory: %dK available, ", (int)(mem_max/1024));
	cprintf("base = %dK, extended = %dK\n",
  1009ff:	89 c2                	mov    %eax,%edx
		(int)(basemem/1024), (int)(extmem/1024));
  100a01:	8b 45 dc             	mov    -0x24(%ebp),%eax
  100a04:	c1 e8 0a             	shr    $0xa,%eax

	// Compute the total number of physical pages (including I/O holes)
	mem_npage = mem_max / PAGESIZE;

	cprintf("Physical memory: %dK available, ", (int)(mem_max/1024));
	cprintf("base = %dK, extended = %dK\n",
  100a07:	89 54 24 08          	mov    %edx,0x8(%esp)
  100a0b:	89 44 24 04          	mov    %eax,0x4(%esp)
  100a0f:	c7 04 24 c1 84 10 00 	movl   $0x1084c1,(%esp)
  100a16:	e8 44 71 00 00       	call   107b5f <cprintf>


	extern char start[], end[];
	uint32_t page_start;
	
	pageinfo **freetail = &mem_freelist;
  100a1b:	c7 45 e8 00 ed 11 00 	movl   $0x11ed00,-0x18(%ebp)
	memset(spc_for_pi, 0, sizeof(pageinfo)*1024*1024*1024/PAGESIZE);
  100a22:	c7 44 24 08 00 00 00 	movl   $0x0,0x8(%esp)
  100a29:	00 
  100a2a:	c7 44 24 04 00 00 00 	movl   $0x0,0x4(%esp)
  100a31:	00 
  100a32:	c7 04 24 20 ed 11 00 	movl   $0x11ed20,(%esp)
  100a39:	e8 06 73 00 00       	call   107d44 <memset>
	mem_pageinfo = spc_for_pi;
  100a3e:	c7 05 58 ed 31 00 20 	movl   $0x11ed20,0x31ed58
  100a45:	ed 11 00 
	int i;
	for (i = 0; i < mem_npage; i++) {
  100a48:	c7 45 ec 00 00 00 00 	movl   $0x0,-0x14(%ebp)
  100a4f:	e9 96 00 00 00       	jmp    100aea <mem_init+0x1af>
		// A free page has no references to it.
		mem_pageinfo[i].refcount = 0;
  100a54:	a1 58 ed 31 00       	mov    0x31ed58,%eax
  100a59:	8b 55 ec             	mov    -0x14(%ebp),%edx
  100a5c:	c1 e2 03             	shl    $0x3,%edx
  100a5f:	01 d0                	add    %edx,%eax
  100a61:	c7 40 04 00 00 00 00 	movl   $0x0,0x4(%eax)

		if(i == 0 || i == 1)
  100a68:	83 7d ec 00          	cmpl   $0x0,-0x14(%ebp)
  100a6c:	74 6e                	je     100adc <mem_init+0x1a1>
  100a6e:	83 7d ec 01          	cmpl   $0x1,-0x14(%ebp)
  100a72:	74 6b                	je     100adf <mem_init+0x1a4>
			continue;

		page_start = mem_pi2phys(mem_pageinfo + i);
  100a74:	8b 45 ec             	mov    -0x14(%ebp),%eax
  100a77:	c1 e0 03             	shl    $0x3,%eax
  100a7a:	c1 f8 03             	sar    $0x3,%eax
  100a7d:	c1 e0 0c             	shl    $0xc,%eax
  100a80:	89 45 e4             	mov    %eax,-0x1c(%ebp)

		if((page_start + PAGESIZE  >= MEM_IO && page_start < MEM_EXT)
  100a83:	8b 45 e4             	mov    -0x1c(%ebp),%eax
  100a86:	05 00 10 00 00       	add    $0x1000,%eax
  100a8b:	3d ff ff 09 00       	cmp    $0x9ffff,%eax
  100a90:	76 09                	jbe    100a9b <mem_init+0x160>
  100a92:	81 7d e4 ff ff 0f 00 	cmpl   $0xfffff,-0x1c(%ebp)
  100a99:	76 47                	jbe    100ae2 <mem_init+0x1a7>
			|| (page_start + PAGESIZE >= (uint32_t)start && page_start < (uint32_t)end))
  100a9b:	8b 45 e4             	mov    -0x1c(%ebp),%eax
  100a9e:	8d 90 00 10 00 00    	lea    0x1000(%eax),%edx
  100aa4:	b8 0c 00 10 00       	mov    $0x10000c,%eax
		if(i == 0 || i == 1)
			continue;

		page_start = mem_pi2phys(mem_pageinfo + i);

		if((page_start + PAGESIZE  >= MEM_IO && page_start < MEM_EXT)
  100aa9:	39 c2                	cmp    %eax,%edx
  100aab:	72 0a                	jb     100ab7 <mem_init+0x17c>
			|| (page_start + PAGESIZE >= (uint32_t)start && page_start < (uint32_t)end))
  100aad:	b8 08 20 32 00       	mov    $0x322008,%eax
		if(i == 0 || i == 1)
			continue;

		page_start = mem_pi2phys(mem_pageinfo + i);

		if((page_start + PAGESIZE  >= MEM_IO && page_start < MEM_EXT)
  100ab2:	39 45 e4             	cmp    %eax,-0x1c(%ebp)
  100ab5:	72 2e                	jb     100ae5 <mem_init+0x1aa>
			|| (page_start + PAGESIZE >= (uint32_t)start && page_start < (uint32_t)end))
			continue;


		// Add the page to the end of the free list.
		*freetail = &mem_pageinfo[i];
  100ab7:	a1 58 ed 31 00       	mov    0x31ed58,%eax
  100abc:	8b 55 ec             	mov    -0x14(%ebp),%edx
  100abf:	c1 e2 03             	shl    $0x3,%edx
  100ac2:	8d 14 10             	lea    (%eax,%edx,1),%edx
  100ac5:	8b 45 e8             	mov    -0x18(%ebp),%eax
  100ac8:	89 10                	mov    %edx,(%eax)
		freetail = &mem_pageinfo[i].free_next;
  100aca:	a1 58 ed 31 00       	mov    0x31ed58,%eax
  100acf:	8b 55 ec             	mov    -0x14(%ebp),%edx
  100ad2:	c1 e2 03             	shl    $0x3,%edx
  100ad5:	01 d0                	add    %edx,%eax
  100ad7:	89 45 e8             	mov    %eax,-0x18(%ebp)
  100ada:	eb 0a                	jmp    100ae6 <mem_init+0x1ab>
	for (i = 0; i < mem_npage; i++) {
		// A free page has no references to it.
		mem_pageinfo[i].refcount = 0;

		if(i == 0 || i == 1)
			continue;
  100adc:	90                   	nop
  100add:	eb 07                	jmp    100ae6 <mem_init+0x1ab>
  100adf:	90                   	nop
  100ae0:	eb 04                	jmp    100ae6 <mem_init+0x1ab>

		page_start = mem_pi2phys(mem_pageinfo + i);

		if((page_start + PAGESIZE  >= MEM_IO && page_start < MEM_EXT)
			|| (page_start + PAGESIZE >= (uint32_t)start && page_start < (uint32_t)end))
			continue;
  100ae2:	90                   	nop
  100ae3:	eb 01                	jmp    100ae6 <mem_init+0x1ab>
  100ae5:	90                   	nop
	
	pageinfo **freetail = &mem_freelist;
	memset(spc_for_pi, 0, sizeof(pageinfo)*1024*1024*1024/PAGESIZE);
	mem_pageinfo = spc_for_pi;
	int i;
	for (i = 0; i < mem_npage; i++) {
  100ae6:	83 45 ec 01          	addl   $0x1,-0x14(%ebp)
  100aea:	8b 55 ec             	mov    -0x14(%ebp),%edx
  100aed:	a1 04 ed 11 00       	mov    0x11ed04,%eax
  100af2:	39 c2                	cmp    %eax,%edx
  100af4:	0f 82 5a ff ff ff    	jb     100a54 <mem_init+0x119>

		// Add the page to the end of the free list.
		*freetail = &mem_pageinfo[i];
		freetail = &mem_pageinfo[i].free_next;
	}
	*freetail = NULL;	// null-terminate the freelist
  100afa:	8b 45 e8             	mov    -0x18(%ebp),%eax
  100afd:	c7 00 00 00 00 00    	movl   $0x0,(%eax)

	// ...and remove this when you're ready.
	//panic("mem_init() not implemented");

	// Check to make sure the page allocator seems to work correctly.
	mem_check();
  100b03:	e8 a1 00 00 00       	call   100ba9 <mem_check>
  100b08:	eb 01                	jmp    100b0b <mem_init+0x1d0>

void
mem_init(void)
{
	if (!cpu_onboot())	// only do once, on the boot CPU
		return;
  100b0a:	90                   	nop
	// ...and remove this when you're ready.
	//panic("mem_init() not implemented");

	// Check to make sure the page allocator seems to work correctly.
	mem_check();
}
  100b0b:	c9                   	leave  
  100b0c:	c3                   	ret    

00100b0d <mem_alloc>:



pageinfo *
mem_alloc(void)
{
  100b0d:	55                   	push   %ebp
  100b0e:	89 e5                	mov    %esp,%ebp
  100b10:	83 ec 28             	sub    $0x28,%esp
	// Fill this function in
	// Fill this function in.
	//panic("mem_alloc not implemented.");

	if(mem_freelist == NULL)
  100b13:	a1 00 ed 11 00       	mov    0x11ed00,%eax
  100b18:	85 c0                	test   %eax,%eax
  100b1a:	75 07                	jne    100b23 <mem_alloc+0x16>
		return NULL;
  100b1c:	b8 00 00 00 00       	mov    $0x0,%eax
  100b21:	eb 2f                	jmp    100b52 <mem_alloc+0x45>

	spinlock_acquire(&mem_spinlock);
  100b23:	c7 04 24 20 ed 31 00 	movl   $0x31ed20,(%esp)
  100b2a:	e8 de 17 00 00       	call   10230d <spinlock_acquire>
	pageinfo* r = mem_freelist;
  100b2f:	a1 00 ed 11 00       	mov    0x11ed00,%eax
  100b34:	89 45 f4             	mov    %eax,-0xc(%ebp)
	mem_freelist = mem_freelist->free_next;
  100b37:	a1 00 ed 11 00       	mov    0x11ed00,%eax
  100b3c:	8b 00                	mov    (%eax),%eax
  100b3e:	a3 00 ed 11 00       	mov    %eax,0x11ed00
	spinlock_release(&mem_spinlock);
  100b43:	c7 04 24 20 ed 31 00 	movl   $0x31ed20,(%esp)
  100b4a:	e8 2b 18 00 00       	call   10237a <spinlock_release>
	return r;
  100b4f:	8b 45 f4             	mov    -0xc(%ebp),%eax
}
  100b52:	c9                   	leave  
  100b53:	c3                   	ret    

00100b54 <mem_free>:
// Return a page to the free list, given its pageinfo pointer.
// (This function should only be called when pp->pp_ref reaches 0.)
//
void
mem_free(pageinfo *pi)
{
  100b54:	55                   	push   %ebp
  100b55:	89 e5                	mov    %esp,%ebp
  100b57:	83 ec 18             	sub    $0x18,%esp
	// Fill this function in.
	//panic("mem_free not implemented.");

	if(pi == NULL)
  100b5a:	83 7d 08 00          	cmpl   $0x0,0x8(%ebp)
  100b5e:	75 1c                	jne    100b7c <mem_free+0x28>
		panic("null for page which to be freed!"); 
  100b60:	c7 44 24 08 e0 84 10 	movl   $0x1084e0,0x8(%esp)
  100b67:	00 
  100b68:	c7 44 24 04 ab 00 00 	movl   $0xab,0x4(%esp)
  100b6f:	00 
  100b70:	c7 04 24 74 84 10 00 	movl   $0x108474,(%esp)
  100b77:	e8 05 f9 ff ff       	call   100481 <debug_panic>

	spinlock_acquire(&mem_spinlock);
  100b7c:	c7 04 24 20 ed 31 00 	movl   $0x31ed20,(%esp)
  100b83:	e8 85 17 00 00       	call   10230d <spinlock_acquire>
	pi->free_next = mem_freelist;
  100b88:	8b 15 00 ed 11 00    	mov    0x11ed00,%edx
  100b8e:	8b 45 08             	mov    0x8(%ebp),%eax
  100b91:	89 10                	mov    %edx,(%eax)
	mem_freelist = pi;
  100b93:	8b 45 08             	mov    0x8(%ebp),%eax
  100b96:	a3 00 ed 11 00       	mov    %eax,0x11ed00
	spinlock_release(&mem_spinlock);
  100b9b:	c7 04 24 20 ed 31 00 	movl   $0x31ed20,(%esp)
  100ba2:	e8 d3 17 00 00       	call   10237a <spinlock_release>
	
}
  100ba7:	c9                   	leave  
  100ba8:	c3                   	ret    

00100ba9 <mem_check>:
// Check the physical page allocator (mem_alloc(), mem_free())
// for correct operation after initialization via mem_init().
//
void
mem_check()
{
  100ba9:	55                   	push   %ebp
  100baa:	89 e5                	mov    %esp,%ebp
  100bac:	83 ec 38             	sub    $0x38,%esp
	int i;

        // if there's a page that shouldn't be on
        // the free list, try to make sure it
        // eventually causes trouble.
	int freepages = 0;
  100baf:	c7 45 f4 00 00 00 00 	movl   $0x0,-0xc(%ebp)
	for (pp = mem_freelist; pp != 0; pp = pp->free_next) {
  100bb6:	a1 00 ed 11 00       	mov    0x11ed00,%eax
  100bbb:	89 45 dc             	mov    %eax,-0x24(%ebp)
  100bbe:	eb 38                	jmp    100bf8 <mem_check+0x4f>
		memset(mem_pi2ptr(pp), 0x97, 128);
  100bc0:	8b 55 dc             	mov    -0x24(%ebp),%edx
  100bc3:	a1 58 ed 31 00       	mov    0x31ed58,%eax
  100bc8:	89 d1                	mov    %edx,%ecx
  100bca:	29 c1                	sub    %eax,%ecx
  100bcc:	89 c8                	mov    %ecx,%eax
  100bce:	c1 f8 03             	sar    $0x3,%eax
  100bd1:	c1 e0 0c             	shl    $0xc,%eax
  100bd4:	c7 44 24 08 80 00 00 	movl   $0x80,0x8(%esp)
  100bdb:	00 
  100bdc:	c7 44 24 04 97 00 00 	movl   $0x97,0x4(%esp)
  100be3:	00 
  100be4:	89 04 24             	mov    %eax,(%esp)
  100be7:	e8 58 71 00 00       	call   107d44 <memset>
		freepages++;
  100bec:	83 45 f4 01          	addl   $0x1,-0xc(%ebp)

        // if there's a page that shouldn't be on
        // the free list, try to make sure it
        // eventually causes trouble.
	int freepages = 0;
	for (pp = mem_freelist; pp != 0; pp = pp->free_next) {
  100bf0:	8b 45 dc             	mov    -0x24(%ebp),%eax
  100bf3:	8b 00                	mov    (%eax),%eax
  100bf5:	89 45 dc             	mov    %eax,-0x24(%ebp)
  100bf8:	83 7d dc 00          	cmpl   $0x0,-0x24(%ebp)
  100bfc:	75 c2                	jne    100bc0 <mem_check+0x17>
		memset(mem_pi2ptr(pp), 0x97, 128);
		freepages++;
	}
	cprintf("mem_check: %d free pages\n", freepages);
  100bfe:	8b 45 f4             	mov    -0xc(%ebp),%eax
  100c01:	89 44 24 04          	mov    %eax,0x4(%esp)
  100c05:	c7 04 24 01 85 10 00 	movl   $0x108501,(%esp)
  100c0c:	e8 4e 6f 00 00       	call   107b5f <cprintf>
	assert(freepages < mem_npage);	// can't have more free than total!
  100c11:	8b 55 f4             	mov    -0xc(%ebp),%edx
  100c14:	a1 04 ed 11 00       	mov    0x11ed04,%eax
  100c19:	39 c2                	cmp    %eax,%edx
  100c1b:	72 24                	jb     100c41 <mem_check+0x98>
  100c1d:	c7 44 24 0c 1b 85 10 	movl   $0x10851b,0xc(%esp)
  100c24:	00 
  100c25:	c7 44 24 08 52 84 10 	movl   $0x108452,0x8(%esp)
  100c2c:	00 
  100c2d:	c7 44 24 04 c8 00 00 	movl   $0xc8,0x4(%esp)
  100c34:	00 
  100c35:	c7 04 24 74 84 10 00 	movl   $0x108474,(%esp)
  100c3c:	e8 40 f8 ff ff       	call   100481 <debug_panic>
	assert(freepages > 16000);	// make sure it's in the right ballpark
  100c41:	81 7d f4 80 3e 00 00 	cmpl   $0x3e80,-0xc(%ebp)
  100c48:	7f 24                	jg     100c6e <mem_check+0xc5>
  100c4a:	c7 44 24 0c 31 85 10 	movl   $0x108531,0xc(%esp)
  100c51:	00 
  100c52:	c7 44 24 08 52 84 10 	movl   $0x108452,0x8(%esp)
  100c59:	00 
  100c5a:	c7 44 24 04 c9 00 00 	movl   $0xc9,0x4(%esp)
  100c61:	00 
  100c62:	c7 04 24 74 84 10 00 	movl   $0x108474,(%esp)
  100c69:	e8 13 f8 ff ff       	call   100481 <debug_panic>

	// should be able to allocate three pages
	pp0 = pp1 = pp2 = 0;
  100c6e:	c7 45 e8 00 00 00 00 	movl   $0x0,-0x18(%ebp)
  100c75:	8b 45 e8             	mov    -0x18(%ebp),%eax
  100c78:	89 45 e4             	mov    %eax,-0x1c(%ebp)
  100c7b:	8b 45 e4             	mov    -0x1c(%ebp),%eax
  100c7e:	89 45 e0             	mov    %eax,-0x20(%ebp)
	pp0 = mem_alloc(); assert(pp0 != 0);
  100c81:	e8 87 fe ff ff       	call   100b0d <mem_alloc>
  100c86:	89 45 e0             	mov    %eax,-0x20(%ebp)
  100c89:	83 7d e0 00          	cmpl   $0x0,-0x20(%ebp)
  100c8d:	75 24                	jne    100cb3 <mem_check+0x10a>
  100c8f:	c7 44 24 0c 43 85 10 	movl   $0x108543,0xc(%esp)
  100c96:	00 
  100c97:	c7 44 24 08 52 84 10 	movl   $0x108452,0x8(%esp)
  100c9e:	00 
  100c9f:	c7 44 24 04 cd 00 00 	movl   $0xcd,0x4(%esp)
  100ca6:	00 
  100ca7:	c7 04 24 74 84 10 00 	movl   $0x108474,(%esp)
  100cae:	e8 ce f7 ff ff       	call   100481 <debug_panic>
	pp1 = mem_alloc(); assert(pp1 != 0);
  100cb3:	e8 55 fe ff ff       	call   100b0d <mem_alloc>
  100cb8:	89 45 e4             	mov    %eax,-0x1c(%ebp)
  100cbb:	83 7d e4 00          	cmpl   $0x0,-0x1c(%ebp)
  100cbf:	75 24                	jne    100ce5 <mem_check+0x13c>
  100cc1:	c7 44 24 0c 4c 85 10 	movl   $0x10854c,0xc(%esp)
  100cc8:	00 
  100cc9:	c7 44 24 08 52 84 10 	movl   $0x108452,0x8(%esp)
  100cd0:	00 
  100cd1:	c7 44 24 04 ce 00 00 	movl   $0xce,0x4(%esp)
  100cd8:	00 
  100cd9:	c7 04 24 74 84 10 00 	movl   $0x108474,(%esp)
  100ce0:	e8 9c f7 ff ff       	call   100481 <debug_panic>
	pp2 = mem_alloc(); assert(pp2 != 0);
  100ce5:	e8 23 fe ff ff       	call   100b0d <mem_alloc>
  100cea:	89 45 e8             	mov    %eax,-0x18(%ebp)
  100ced:	83 7d e8 00          	cmpl   $0x0,-0x18(%ebp)
  100cf1:	75 24                	jne    100d17 <mem_check+0x16e>
  100cf3:	c7 44 24 0c 55 85 10 	movl   $0x108555,0xc(%esp)
  100cfa:	00 
  100cfb:	c7 44 24 08 52 84 10 	movl   $0x108452,0x8(%esp)
  100d02:	00 
  100d03:	c7 44 24 04 cf 00 00 	movl   $0xcf,0x4(%esp)
  100d0a:	00 
  100d0b:	c7 04 24 74 84 10 00 	movl   $0x108474,(%esp)
  100d12:	e8 6a f7 ff ff       	call   100481 <debug_panic>

	assert(pp0);
  100d17:	83 7d e0 00          	cmpl   $0x0,-0x20(%ebp)
  100d1b:	75 24                	jne    100d41 <mem_check+0x198>
  100d1d:	c7 44 24 0c 5e 85 10 	movl   $0x10855e,0xc(%esp)
  100d24:	00 
  100d25:	c7 44 24 08 52 84 10 	movl   $0x108452,0x8(%esp)
  100d2c:	00 
  100d2d:	c7 44 24 04 d1 00 00 	movl   $0xd1,0x4(%esp)
  100d34:	00 
  100d35:	c7 04 24 74 84 10 00 	movl   $0x108474,(%esp)
  100d3c:	e8 40 f7 ff ff       	call   100481 <debug_panic>
	assert(pp1 && pp1 != pp0);
  100d41:	83 7d e4 00          	cmpl   $0x0,-0x1c(%ebp)
  100d45:	74 08                	je     100d4f <mem_check+0x1a6>
  100d47:	8b 45 e4             	mov    -0x1c(%ebp),%eax
  100d4a:	3b 45 e0             	cmp    -0x20(%ebp),%eax
  100d4d:	75 24                	jne    100d73 <mem_check+0x1ca>
  100d4f:	c7 44 24 0c 62 85 10 	movl   $0x108562,0xc(%esp)
  100d56:	00 
  100d57:	c7 44 24 08 52 84 10 	movl   $0x108452,0x8(%esp)
  100d5e:	00 
  100d5f:	c7 44 24 04 d2 00 00 	movl   $0xd2,0x4(%esp)
  100d66:	00 
  100d67:	c7 04 24 74 84 10 00 	movl   $0x108474,(%esp)
  100d6e:	e8 0e f7 ff ff       	call   100481 <debug_panic>
	assert(pp2 && pp2 != pp1 && pp2 != pp0);
  100d73:	83 7d e8 00          	cmpl   $0x0,-0x18(%ebp)
  100d77:	74 10                	je     100d89 <mem_check+0x1e0>
  100d79:	8b 45 e8             	mov    -0x18(%ebp),%eax
  100d7c:	3b 45 e4             	cmp    -0x1c(%ebp),%eax
  100d7f:	74 08                	je     100d89 <mem_check+0x1e0>
  100d81:	8b 45 e8             	mov    -0x18(%ebp),%eax
  100d84:	3b 45 e0             	cmp    -0x20(%ebp),%eax
  100d87:	75 24                	jne    100dad <mem_check+0x204>
  100d89:	c7 44 24 0c 74 85 10 	movl   $0x108574,0xc(%esp)
  100d90:	00 
  100d91:	c7 44 24 08 52 84 10 	movl   $0x108452,0x8(%esp)
  100d98:	00 
  100d99:	c7 44 24 04 d3 00 00 	movl   $0xd3,0x4(%esp)
  100da0:	00 
  100da1:	c7 04 24 74 84 10 00 	movl   $0x108474,(%esp)
  100da8:	e8 d4 f6 ff ff       	call   100481 <debug_panic>
        assert(mem_pi2phys(pp0) < mem_npage*PAGESIZE);
  100dad:	8b 55 e0             	mov    -0x20(%ebp),%edx
  100db0:	a1 58 ed 31 00       	mov    0x31ed58,%eax
  100db5:	89 d1                	mov    %edx,%ecx
  100db7:	29 c1                	sub    %eax,%ecx
  100db9:	89 c8                	mov    %ecx,%eax
  100dbb:	c1 f8 03             	sar    $0x3,%eax
  100dbe:	c1 e0 0c             	shl    $0xc,%eax
  100dc1:	8b 15 04 ed 11 00    	mov    0x11ed04,%edx
  100dc7:	c1 e2 0c             	shl    $0xc,%edx
  100dca:	39 d0                	cmp    %edx,%eax
  100dcc:	72 24                	jb     100df2 <mem_check+0x249>
  100dce:	c7 44 24 0c 94 85 10 	movl   $0x108594,0xc(%esp)
  100dd5:	00 
  100dd6:	c7 44 24 08 52 84 10 	movl   $0x108452,0x8(%esp)
  100ddd:	00 
  100dde:	c7 44 24 04 d4 00 00 	movl   $0xd4,0x4(%esp)
  100de5:	00 
  100de6:	c7 04 24 74 84 10 00 	movl   $0x108474,(%esp)
  100ded:	e8 8f f6 ff ff       	call   100481 <debug_panic>
        assert(mem_pi2phys(pp1) < mem_npage*PAGESIZE);
  100df2:	8b 55 e4             	mov    -0x1c(%ebp),%edx
  100df5:	a1 58 ed 31 00       	mov    0x31ed58,%eax
  100dfa:	89 d1                	mov    %edx,%ecx
  100dfc:	29 c1                	sub    %eax,%ecx
  100dfe:	89 c8                	mov    %ecx,%eax
  100e00:	c1 f8 03             	sar    $0x3,%eax
  100e03:	c1 e0 0c             	shl    $0xc,%eax
  100e06:	8b 15 04 ed 11 00    	mov    0x11ed04,%edx
  100e0c:	c1 e2 0c             	shl    $0xc,%edx
  100e0f:	39 d0                	cmp    %edx,%eax
  100e11:	72 24                	jb     100e37 <mem_check+0x28e>
  100e13:	c7 44 24 0c bc 85 10 	movl   $0x1085bc,0xc(%esp)
  100e1a:	00 
  100e1b:	c7 44 24 08 52 84 10 	movl   $0x108452,0x8(%esp)
  100e22:	00 
  100e23:	c7 44 24 04 d5 00 00 	movl   $0xd5,0x4(%esp)
  100e2a:	00 
  100e2b:	c7 04 24 74 84 10 00 	movl   $0x108474,(%esp)
  100e32:	e8 4a f6 ff ff       	call   100481 <debug_panic>
        assert(mem_pi2phys(pp2) < mem_npage*PAGESIZE);
  100e37:	8b 55 e8             	mov    -0x18(%ebp),%edx
  100e3a:	a1 58 ed 31 00       	mov    0x31ed58,%eax
  100e3f:	89 d1                	mov    %edx,%ecx
  100e41:	29 c1                	sub    %eax,%ecx
  100e43:	89 c8                	mov    %ecx,%eax
  100e45:	c1 f8 03             	sar    $0x3,%eax
  100e48:	c1 e0 0c             	shl    $0xc,%eax
  100e4b:	8b 15 04 ed 11 00    	mov    0x11ed04,%edx
  100e51:	c1 e2 0c             	shl    $0xc,%edx
  100e54:	39 d0                	cmp    %edx,%eax
  100e56:	72 24                	jb     100e7c <mem_check+0x2d3>
  100e58:	c7 44 24 0c e4 85 10 	movl   $0x1085e4,0xc(%esp)
  100e5f:	00 
  100e60:	c7 44 24 08 52 84 10 	movl   $0x108452,0x8(%esp)
  100e67:	00 
  100e68:	c7 44 24 04 d6 00 00 	movl   $0xd6,0x4(%esp)
  100e6f:	00 
  100e70:	c7 04 24 74 84 10 00 	movl   $0x108474,(%esp)
  100e77:	e8 05 f6 ff ff       	call   100481 <debug_panic>

	// temporarily steal the rest of the free pages
	fl = mem_freelist;
  100e7c:	a1 00 ed 11 00       	mov    0x11ed00,%eax
  100e81:	89 45 ec             	mov    %eax,-0x14(%ebp)
	mem_freelist = 0;
  100e84:	c7 05 00 ed 11 00 00 	movl   $0x0,0x11ed00
  100e8b:	00 00 00 

	// should be no free memory
	assert(mem_alloc() == 0);
  100e8e:	e8 7a fc ff ff       	call   100b0d <mem_alloc>
  100e93:	85 c0                	test   %eax,%eax
  100e95:	74 24                	je     100ebb <mem_check+0x312>
  100e97:	c7 44 24 0c 0a 86 10 	movl   $0x10860a,0xc(%esp)
  100e9e:	00 
  100e9f:	c7 44 24 08 52 84 10 	movl   $0x108452,0x8(%esp)
  100ea6:	00 
  100ea7:	c7 44 24 04 dd 00 00 	movl   $0xdd,0x4(%esp)
  100eae:	00 
  100eaf:	c7 04 24 74 84 10 00 	movl   $0x108474,(%esp)
  100eb6:	e8 c6 f5 ff ff       	call   100481 <debug_panic>

        // free and re-allocate?
        mem_free(pp0);
  100ebb:	8b 45 e0             	mov    -0x20(%ebp),%eax
  100ebe:	89 04 24             	mov    %eax,(%esp)
  100ec1:	e8 8e fc ff ff       	call   100b54 <mem_free>
        mem_free(pp1);
  100ec6:	8b 45 e4             	mov    -0x1c(%ebp),%eax
  100ec9:	89 04 24             	mov    %eax,(%esp)
  100ecc:	e8 83 fc ff ff       	call   100b54 <mem_free>
        mem_free(pp2);
  100ed1:	8b 45 e8             	mov    -0x18(%ebp),%eax
  100ed4:	89 04 24             	mov    %eax,(%esp)
  100ed7:	e8 78 fc ff ff       	call   100b54 <mem_free>
	pp0 = pp1 = pp2 = 0;
  100edc:	c7 45 e8 00 00 00 00 	movl   $0x0,-0x18(%ebp)
  100ee3:	8b 45 e8             	mov    -0x18(%ebp),%eax
  100ee6:	89 45 e4             	mov    %eax,-0x1c(%ebp)
  100ee9:	8b 45 e4             	mov    -0x1c(%ebp),%eax
  100eec:	89 45 e0             	mov    %eax,-0x20(%ebp)
	pp0 = mem_alloc(); assert(pp0 != 0);
  100eef:	e8 19 fc ff ff       	call   100b0d <mem_alloc>
  100ef4:	89 45 e0             	mov    %eax,-0x20(%ebp)
  100ef7:	83 7d e0 00          	cmpl   $0x0,-0x20(%ebp)
  100efb:	75 24                	jne    100f21 <mem_check+0x378>
  100efd:	c7 44 24 0c 43 85 10 	movl   $0x108543,0xc(%esp)
  100f04:	00 
  100f05:	c7 44 24 08 52 84 10 	movl   $0x108452,0x8(%esp)
  100f0c:	00 
  100f0d:	c7 44 24 04 e4 00 00 	movl   $0xe4,0x4(%esp)
  100f14:	00 
  100f15:	c7 04 24 74 84 10 00 	movl   $0x108474,(%esp)
  100f1c:	e8 60 f5 ff ff       	call   100481 <debug_panic>
	pp1 = mem_alloc(); assert(pp1 != 0);
  100f21:	e8 e7 fb ff ff       	call   100b0d <mem_alloc>
  100f26:	89 45 e4             	mov    %eax,-0x1c(%ebp)
  100f29:	83 7d e4 00          	cmpl   $0x0,-0x1c(%ebp)
  100f2d:	75 24                	jne    100f53 <mem_check+0x3aa>
  100f2f:	c7 44 24 0c 4c 85 10 	movl   $0x10854c,0xc(%esp)
  100f36:	00 
  100f37:	c7 44 24 08 52 84 10 	movl   $0x108452,0x8(%esp)
  100f3e:	00 
  100f3f:	c7 44 24 04 e5 00 00 	movl   $0xe5,0x4(%esp)
  100f46:	00 
  100f47:	c7 04 24 74 84 10 00 	movl   $0x108474,(%esp)
  100f4e:	e8 2e f5 ff ff       	call   100481 <debug_panic>
	pp2 = mem_alloc(); assert(pp2 != 0);
  100f53:	e8 b5 fb ff ff       	call   100b0d <mem_alloc>
  100f58:	89 45 e8             	mov    %eax,-0x18(%ebp)
  100f5b:	83 7d e8 00          	cmpl   $0x0,-0x18(%ebp)
  100f5f:	75 24                	jne    100f85 <mem_check+0x3dc>
  100f61:	c7 44 24 0c 55 85 10 	movl   $0x108555,0xc(%esp)
  100f68:	00 
  100f69:	c7 44 24 08 52 84 10 	movl   $0x108452,0x8(%esp)
  100f70:	00 
  100f71:	c7 44 24 04 e6 00 00 	movl   $0xe6,0x4(%esp)
  100f78:	00 
  100f79:	c7 04 24 74 84 10 00 	movl   $0x108474,(%esp)
  100f80:	e8 fc f4 ff ff       	call   100481 <debug_panic>
	assert(pp0);
  100f85:	83 7d e0 00          	cmpl   $0x0,-0x20(%ebp)
  100f89:	75 24                	jne    100faf <mem_check+0x406>
  100f8b:	c7 44 24 0c 5e 85 10 	movl   $0x10855e,0xc(%esp)
  100f92:	00 
  100f93:	c7 44 24 08 52 84 10 	movl   $0x108452,0x8(%esp)
  100f9a:	00 
  100f9b:	c7 44 24 04 e7 00 00 	movl   $0xe7,0x4(%esp)
  100fa2:	00 
  100fa3:	c7 04 24 74 84 10 00 	movl   $0x108474,(%esp)
  100faa:	e8 d2 f4 ff ff       	call   100481 <debug_panic>
	assert(pp1 && pp1 != pp0);
  100faf:	83 7d e4 00          	cmpl   $0x0,-0x1c(%ebp)
  100fb3:	74 08                	je     100fbd <mem_check+0x414>
  100fb5:	8b 45 e4             	mov    -0x1c(%ebp),%eax
  100fb8:	3b 45 e0             	cmp    -0x20(%ebp),%eax
  100fbb:	75 24                	jne    100fe1 <mem_check+0x438>
  100fbd:	c7 44 24 0c 62 85 10 	movl   $0x108562,0xc(%esp)
  100fc4:	00 
  100fc5:	c7 44 24 08 52 84 10 	movl   $0x108452,0x8(%esp)
  100fcc:	00 
  100fcd:	c7 44 24 04 e8 00 00 	movl   $0xe8,0x4(%esp)
  100fd4:	00 
  100fd5:	c7 04 24 74 84 10 00 	movl   $0x108474,(%esp)
  100fdc:	e8 a0 f4 ff ff       	call   100481 <debug_panic>
	assert(pp2 && pp2 != pp1 && pp2 != pp0);
  100fe1:	83 7d e8 00          	cmpl   $0x0,-0x18(%ebp)
  100fe5:	74 10                	je     100ff7 <mem_check+0x44e>
  100fe7:	8b 45 e8             	mov    -0x18(%ebp),%eax
  100fea:	3b 45 e4             	cmp    -0x1c(%ebp),%eax
  100fed:	74 08                	je     100ff7 <mem_check+0x44e>
  100fef:	8b 45 e8             	mov    -0x18(%ebp),%eax
  100ff2:	3b 45 e0             	cmp    -0x20(%ebp),%eax
  100ff5:	75 24                	jne    10101b <mem_check+0x472>
  100ff7:	c7 44 24 0c 74 85 10 	movl   $0x108574,0xc(%esp)
  100ffe:	00 
  100fff:	c7 44 24 08 52 84 10 	movl   $0x108452,0x8(%esp)
  101006:	00 
  101007:	c7 44 24 04 e9 00 00 	movl   $0xe9,0x4(%esp)
  10100e:	00 
  10100f:	c7 04 24 74 84 10 00 	movl   $0x108474,(%esp)
  101016:	e8 66 f4 ff ff       	call   100481 <debug_panic>
	assert(mem_alloc() == 0);
  10101b:	e8 ed fa ff ff       	call   100b0d <mem_alloc>
  101020:	85 c0                	test   %eax,%eax
  101022:	74 24                	je     101048 <mem_check+0x49f>
  101024:	c7 44 24 0c 0a 86 10 	movl   $0x10860a,0xc(%esp)
  10102b:	00 
  10102c:	c7 44 24 08 52 84 10 	movl   $0x108452,0x8(%esp)
  101033:	00 
  101034:	c7 44 24 04 ea 00 00 	movl   $0xea,0x4(%esp)
  10103b:	00 
  10103c:	c7 04 24 74 84 10 00 	movl   $0x108474,(%esp)
  101043:	e8 39 f4 ff ff       	call   100481 <debug_panic>

	// give free list back
	mem_freelist = fl;
  101048:	8b 45 ec             	mov    -0x14(%ebp),%eax
  10104b:	a3 00 ed 11 00       	mov    %eax,0x11ed00

	// free the pages we took
	mem_free(pp0);
  101050:	8b 45 e0             	mov    -0x20(%ebp),%eax
  101053:	89 04 24             	mov    %eax,(%esp)
  101056:	e8 f9 fa ff ff       	call   100b54 <mem_free>
	mem_free(pp1);
  10105b:	8b 45 e4             	mov    -0x1c(%ebp),%eax
  10105e:	89 04 24             	mov    %eax,(%esp)
  101061:	e8 ee fa ff ff       	call   100b54 <mem_free>
	mem_free(pp2);
  101066:	8b 45 e8             	mov    -0x18(%ebp),%eax
  101069:	89 04 24             	mov    %eax,(%esp)
  10106c:	e8 e3 fa ff ff       	call   100b54 <mem_free>

	cprintf("mem_check() succeeded!\n");
  101071:	c7 04 24 1b 86 10 00 	movl   $0x10861b,(%esp)
  101078:	e8 e2 6a 00 00       	call   107b5f <cprintf>
}
  10107d:	c9                   	leave  
  10107e:	c3                   	ret    

0010107f <xchg>:
}

// Atomically set *addr to newval and return the old value of *addr.
static inline uint32_t
xchg(volatile uint32_t *addr, uint32_t newval)
{
  10107f:	55                   	push   %ebp
  101080:	89 e5                	mov    %esp,%ebp
  101082:	83 ec 10             	sub    $0x10,%esp
	uint32_t result;

	// The + in "+m" denotes a read-modify-write operand.
	asm volatile("lock; xchgl %0, %1" :
  101085:	8b 55 08             	mov    0x8(%ebp),%edx
  101088:	8b 45 0c             	mov    0xc(%ebp),%eax
  10108b:	8b 4d 08             	mov    0x8(%ebp),%ecx
  10108e:	f0 87 02             	lock xchg %eax,(%edx)
  101091:	89 45 fc             	mov    %eax,-0x4(%ebp)
	       "+m" (*addr), "=a" (result) :
	       "1" (newval) :
	       "cc");
	return result;
  101094:	8b 45 fc             	mov    -0x4(%ebp),%eax
}
  101097:	c9                   	leave  
  101098:	c3                   	ret    

00101099 <cpu_cur>:
#define cpu_disabled(c)		0

// Find the CPU struct representing the current CPU.
// It always resides at the bottom of the page containing the CPU's stack.
static inline cpu *
cpu_cur() {
  101099:	55                   	push   %ebp
  10109a:	89 e5                	mov    %esp,%ebp
  10109c:	83 ec 28             	sub    $0x28,%esp

static gcc_inline uint32_t
read_esp(void)
{
        uint32_t esp;
        __asm __volatile("movl %%esp,%0" : "=rm" (esp));
  10109f:	89 65 f4             	mov    %esp,-0xc(%ebp)
        return esp;
  1010a2:	8b 45 f4             	mov    -0xc(%ebp),%eax
	cpu *c = (cpu*)ROUNDDOWN(read_esp(), PAGESIZE);
  1010a5:	89 45 f0             	mov    %eax,-0x10(%ebp)
  1010a8:	8b 45 f0             	mov    -0x10(%ebp),%eax
  1010ab:	25 00 f0 ff ff       	and    $0xfffff000,%eax
  1010b0:	89 45 ec             	mov    %eax,-0x14(%ebp)
	assert(c->magic == CPU_MAGIC);
  1010b3:	8b 45 ec             	mov    -0x14(%ebp),%eax
  1010b6:	8b 80 b8 00 00 00    	mov    0xb8(%eax),%eax
  1010bc:	3d 32 54 76 98       	cmp    $0x98765432,%eax
  1010c1:	74 24                	je     1010e7 <cpu_cur+0x4e>
  1010c3:	c7 44 24 0c 33 86 10 	movl   $0x108633,0xc(%esp)
  1010ca:	00 
  1010cb:	c7 44 24 08 49 86 10 	movl   $0x108649,0x8(%esp)
  1010d2:	00 
  1010d3:	c7 44 24 04 5c 00 00 	movl   $0x5c,0x4(%esp)
  1010da:	00 
  1010db:	c7 04 24 5e 86 10 00 	movl   $0x10865e,(%esp)
  1010e2:	e8 9a f3 ff ff       	call   100481 <debug_panic>
	return c;
  1010e7:	8b 45 ec             	mov    -0x14(%ebp),%eax
}
  1010ea:	c9                   	leave  
  1010eb:	c3                   	ret    

001010ec <cpu_onboot>:

// Returns true if we're running on the bootstrap CPU.
static inline int
cpu_onboot() {
  1010ec:	55                   	push   %ebp
  1010ed:	89 e5                	mov    %esp,%ebp
  1010ef:	83 ec 08             	sub    $0x8,%esp
	return cpu_cur() == &cpu_boot;
  1010f2:	e8 a2 ff ff ff       	call   101099 <cpu_cur>
  1010f7:	3d 00 b0 10 00       	cmp    $0x10b000,%eax
  1010fc:	0f 94 c0             	sete   %al
  1010ff:	0f b6 c0             	movzbl %al,%eax
}
  101102:	c9                   	leave  
  101103:	c3                   	ret    

00101104 <cpu_init>:
	magic: CPU_MAGIC
};


void cpu_init()
{
  101104:	55                   	push   %ebp
  101105:	89 e5                	mov    %esp,%ebp
  101107:	53                   	push   %ebx
  101108:	83 ec 14             	sub    $0x14,%esp
	cpu *c = cpu_cur();
  10110b:	e8 89 ff ff ff       	call   101099 <cpu_cur>
  101110:	89 45 f0             	mov    %eax,-0x10(%ebp)

	c->tss.ts_ss0 = CPU_GDT_KDATA;
  101113:	8b 45 f0             	mov    -0x10(%ebp),%eax
  101116:	66 c7 40 40 10 00    	movw   $0x10,0x40(%eax)
	c->tss.ts_esp0 = (uintptr_t)c->kstackhi; 
  10111c:	8b 45 f0             	mov    -0x10(%ebp),%eax
  10111f:	05 00 10 00 00       	add    $0x1000,%eax
  101124:	89 c2                	mov    %eax,%edx
  101126:	8b 45 f0             	mov    -0x10(%ebp),%eax
  101129:	89 50 3c             	mov    %edx,0x3c(%eax)
	c->gdt[CPU_GDT_TSS>>3] = SEGDESC16(0, STS_T32A, (uintptr_t)(&c->tss), sizeof(c->tss) - 1, 0);
  10112c:	8b 45 f0             	mov    -0x10(%ebp),%eax
  10112f:	83 c0 38             	add    $0x38,%eax
  101132:	89 c3                	mov    %eax,%ebx
  101134:	8b 45 f0             	mov    -0x10(%ebp),%eax
  101137:	83 c0 38             	add    $0x38,%eax
  10113a:	c1 e8 10             	shr    $0x10,%eax
  10113d:	89 c1                	mov    %eax,%ecx
  10113f:	8b 45 f0             	mov    -0x10(%ebp),%eax
  101142:	83 c0 38             	add    $0x38,%eax
  101145:	c1 e8 18             	shr    $0x18,%eax
  101148:	89 c2                	mov    %eax,%edx
  10114a:	8b 45 f0             	mov    -0x10(%ebp),%eax
  10114d:	66 c7 40 30 67 00    	movw   $0x67,0x30(%eax)
  101153:	8b 45 f0             	mov    -0x10(%ebp),%eax
  101156:	66 89 58 32          	mov    %bx,0x32(%eax)
  10115a:	8b 45 f0             	mov    -0x10(%ebp),%eax
  10115d:	88 48 34             	mov    %cl,0x34(%eax)
  101160:	8b 45 f0             	mov    -0x10(%ebp),%eax
  101163:	0f b6 48 35          	movzbl 0x35(%eax),%ecx
  101167:	83 e1 f0             	and    $0xfffffff0,%ecx
  10116a:	83 c9 09             	or     $0x9,%ecx
  10116d:	88 48 35             	mov    %cl,0x35(%eax)
  101170:	8b 45 f0             	mov    -0x10(%ebp),%eax
  101173:	0f b6 48 35          	movzbl 0x35(%eax),%ecx
  101177:	83 e1 ef             	and    $0xffffffef,%ecx
  10117a:	88 48 35             	mov    %cl,0x35(%eax)
  10117d:	8b 45 f0             	mov    -0x10(%ebp),%eax
  101180:	0f b6 48 35          	movzbl 0x35(%eax),%ecx
  101184:	83 e1 9f             	and    $0xffffff9f,%ecx
  101187:	88 48 35             	mov    %cl,0x35(%eax)
  10118a:	8b 45 f0             	mov    -0x10(%ebp),%eax
  10118d:	0f b6 48 35          	movzbl 0x35(%eax),%ecx
  101191:	83 c9 80             	or     $0xffffff80,%ecx
  101194:	88 48 35             	mov    %cl,0x35(%eax)
  101197:	8b 45 f0             	mov    -0x10(%ebp),%eax
  10119a:	0f b6 48 36          	movzbl 0x36(%eax),%ecx
  10119e:	83 e1 f0             	and    $0xfffffff0,%ecx
  1011a1:	88 48 36             	mov    %cl,0x36(%eax)
  1011a4:	8b 45 f0             	mov    -0x10(%ebp),%eax
  1011a7:	0f b6 48 36          	movzbl 0x36(%eax),%ecx
  1011ab:	83 e1 ef             	and    $0xffffffef,%ecx
  1011ae:	88 48 36             	mov    %cl,0x36(%eax)
  1011b1:	8b 45 f0             	mov    -0x10(%ebp),%eax
  1011b4:	0f b6 48 36          	movzbl 0x36(%eax),%ecx
  1011b8:	83 e1 df             	and    $0xffffffdf,%ecx
  1011bb:	88 48 36             	mov    %cl,0x36(%eax)
  1011be:	8b 45 f0             	mov    -0x10(%ebp),%eax
  1011c1:	0f b6 48 36          	movzbl 0x36(%eax),%ecx
  1011c5:	83 c9 40             	or     $0x40,%ecx
  1011c8:	88 48 36             	mov    %cl,0x36(%eax)
  1011cb:	8b 45 f0             	mov    -0x10(%ebp),%eax
  1011ce:	0f b6 48 36          	movzbl 0x36(%eax),%ecx
  1011d2:	83 e1 7f             	and    $0x7f,%ecx
  1011d5:	88 48 36             	mov    %cl,0x36(%eax)
  1011d8:	8b 45 f0             	mov    -0x10(%ebp),%eax
  1011db:	88 50 37             	mov    %dl,0x37(%eax)


	// Load the GDT
	struct pseudodesc gdt_pd = {
		sizeof(c->gdt) - 1, (uint32_t) c->gdt };
  1011de:	8b 45 f0             	mov    -0x10(%ebp),%eax
  1011e1:	66 c7 45 ea 37 00    	movw   $0x37,-0x16(%ebp)
  1011e7:	89 45 ec             	mov    %eax,-0x14(%ebp)
	asm volatile("lgdt %0" : : "m" (gdt_pd));
  1011ea:	0f 01 55 ea          	lgdtl  -0x16(%ebp)
  1011ee:	66 c7 45 f6 30 00    	movw   $0x30,-0xa(%ebp)
}

static gcc_inline void
ltr(uint16_t sel)
{
	__asm __volatile("ltr %0" : : "r" (sel));
  1011f4:	0f b7 45 f6          	movzwl -0xa(%ebp),%eax
  1011f8:	0f 00 d8             	ltr    %ax
	ltr(CPU_GDT_TSS);
	
	// Reload all segment registers.
	//asm volatile("movw %%ax,%%gs" :: "a" (CPU_GDT_UDATA|3));
	//asm volatile("movw %%ax,%%fs" :: "a" (CPU_GDT_UDATA|3));
	asm volatile("movw %%ax,%%es" :: "a" (CPU_GDT_KDATA));
  1011fb:	b8 10 00 00 00       	mov    $0x10,%eax
  101200:	8e c0                	mov    %eax,%es
	asm volatile("movw %%ax,%%ds" :: "a" (CPU_GDT_KDATA));
  101202:	b8 10 00 00 00       	mov    $0x10,%eax
  101207:	8e d8                	mov    %eax,%ds
	asm volatile("movw %%ax,%%ss" :: "a" (CPU_GDT_KDATA));
  101209:	b8 10 00 00 00       	mov    $0x10,%eax
  10120e:	8e d0                	mov    %eax,%ss
	asm volatile("ljmp %0,$1f\n 1:\n" :: "i" (CPU_GDT_KCODE)); // reload CS
  101210:	ea 17 12 10 00 08 00 	ljmp   $0x8,$0x101217

	// We don't need an LDT.
	asm volatile("lldt %%ax" :: "a" (0));
  101217:	b8 00 00 00 00       	mov    $0x0,%eax
  10121c:	0f 00 d0             	lldt   %ax
}
  10121f:	83 c4 14             	add    $0x14,%esp
  101222:	5b                   	pop    %ebx
  101223:	5d                   	pop    %ebp
  101224:	c3                   	ret    

00101225 <cpu_alloc>:

// Allocate an additional cpu struct representing a non-bootstrap processor.
cpu *
cpu_alloc(void)
{
  101225:	55                   	push   %ebp
  101226:	89 e5                	mov    %esp,%ebp
  101228:	83 ec 28             	sub    $0x28,%esp
	// Pointer to the cpu.next pointer of the last CPU on the list,
	// for chaining on new CPUs in cpu_alloc().  Note: static.
	static cpu **cpu_tail = &cpu_boot.next;

	pageinfo *pi = mem_alloc();
  10122b:	e8 dd f8 ff ff       	call   100b0d <mem_alloc>
  101230:	89 45 f0             	mov    %eax,-0x10(%ebp)
	assert(pi != 0);	// shouldn't be out of memory just yet!
  101233:	83 7d f0 00          	cmpl   $0x0,-0x10(%ebp)
  101237:	75 24                	jne    10125d <cpu_alloc+0x38>
  101239:	c7 44 24 0c 6b 86 10 	movl   $0x10866b,0xc(%esp)
  101240:	00 
  101241:	c7 44 24 08 49 86 10 	movl   $0x108649,0x8(%esp)
  101248:	00 
  101249:	c7 44 24 04 63 00 00 	movl   $0x63,0x4(%esp)
  101250:	00 
  101251:	c7 04 24 73 86 10 00 	movl   $0x108673,(%esp)
  101258:	e8 24 f2 ff ff       	call   100481 <debug_panic>

	cpu *c = (cpu*) mem_pi2ptr(pi);
  10125d:	8b 55 f0             	mov    -0x10(%ebp),%edx
  101260:	a1 58 ed 31 00       	mov    0x31ed58,%eax
  101265:	89 d1                	mov    %edx,%ecx
  101267:	29 c1                	sub    %eax,%ecx
  101269:	89 c8                	mov    %ecx,%eax
  10126b:	c1 f8 03             	sar    $0x3,%eax
  10126e:	c1 e0 0c             	shl    $0xc,%eax
  101271:	89 45 f4             	mov    %eax,-0xc(%ebp)

	// Clear the whole page for good measure: cpu struct and kernel stack
	memset(c, 0, PAGESIZE);
  101274:	c7 44 24 08 00 10 00 	movl   $0x1000,0x8(%esp)
  10127b:	00 
  10127c:	c7 44 24 04 00 00 00 	movl   $0x0,0x4(%esp)
  101283:	00 
  101284:	8b 45 f4             	mov    -0xc(%ebp),%eax
  101287:	89 04 24             	mov    %eax,(%esp)
  10128a:	e8 b5 6a 00 00       	call   107d44 <memset>
	// when it starts up and calls cpu_init().

	// Initialize the new cpu's GDT by copying from the cpu_boot.
	// The TSS descriptor will be filled in later by cpu_init().
	assert(sizeof(c->gdt) == sizeof(segdesc) * CPU_GDT_NDESC);
	memmove(c->gdt, cpu_boot.gdt, sizeof(c->gdt));
  10128f:	8b 45 f4             	mov    -0xc(%ebp),%eax
  101292:	c7 44 24 08 38 00 00 	movl   $0x38,0x8(%esp)
  101299:	00 
  10129a:	c7 44 24 04 00 b0 10 	movl   $0x10b000,0x4(%esp)
  1012a1:	00 
  1012a2:	89 04 24             	mov    %eax,(%esp)
  1012a5:	e8 0e 6b 00 00       	call   107db8 <memmove>

	// Magic verification tag for stack overflow/cpu corruption checking
	c->magic = CPU_MAGIC;
  1012aa:	8b 45 f4             	mov    -0xc(%ebp),%eax
  1012ad:	c7 80 b8 00 00 00 32 	movl   $0x98765432,0xb8(%eax)
  1012b4:	54 76 98 

	// Chain the new CPU onto the tail of the list.
	*cpu_tail = c;
  1012b7:	a1 00 c0 10 00       	mov    0x10c000,%eax
  1012bc:	8b 55 f4             	mov    -0xc(%ebp),%edx
  1012bf:	89 10                	mov    %edx,(%eax)
	cpu_tail = &c->next;
  1012c1:	8b 45 f4             	mov    -0xc(%ebp),%eax
  1012c4:	05 a8 00 00 00       	add    $0xa8,%eax
  1012c9:	a3 00 c0 10 00       	mov    %eax,0x10c000

	return c;
  1012ce:	8b 45 f4             	mov    -0xc(%ebp),%eax
}
  1012d1:	c9                   	leave  
  1012d2:	c3                   	ret    

001012d3 <cpu_bootothers>:

void
cpu_bootothers(void)
{
  1012d3:	55                   	push   %ebp
  1012d4:	89 e5                	mov    %esp,%ebp
  1012d6:	83 ec 28             	sub    $0x28,%esp
	extern uint8_t _binary_obj_boot_bootother_start[],
			_binary_obj_boot_bootother_size[];

	if (!cpu_onboot()) {
  1012d9:	e8 0e fe ff ff       	call   1010ec <cpu_onboot>
  1012de:	85 c0                	test   %eax,%eax
  1012e0:	75 1f                	jne    101301 <cpu_bootothers+0x2e>
		// Just inform the boot cpu we've booted.
		xchg(&cpu_cur()->booted, 1);
  1012e2:	e8 b2 fd ff ff       	call   101099 <cpu_cur>
  1012e7:	05 b0 00 00 00       	add    $0xb0,%eax
  1012ec:	c7 44 24 04 01 00 00 	movl   $0x1,0x4(%esp)
  1012f3:	00 
  1012f4:	89 04 24             	mov    %eax,(%esp)
  1012f7:	e8 83 fd ff ff       	call   10107f <xchg>
		return;
  1012fc:	e9 91 00 00 00       	jmp    101392 <cpu_bootothers+0xbf>
	}

	// Write bootstrap code to unused memory at 0x1000.
	uint8_t *code = (uint8_t*)0x1000;
  101301:	c7 45 f0 00 10 00 00 	movl   $0x1000,-0x10(%ebp)
	memmove(code, _binary_obj_boot_bootother_start,
  101308:	b8 6a 00 00 00       	mov    $0x6a,%eax
  10130d:	89 44 24 08          	mov    %eax,0x8(%esp)
  101311:	c7 44 24 04 ca 84 11 	movl   $0x1184ca,0x4(%esp)
  101318:	00 
  101319:	8b 45 f0             	mov    -0x10(%ebp),%eax
  10131c:	89 04 24             	mov    %eax,(%esp)
  10131f:	e8 94 6a 00 00       	call   107db8 <memmove>
		(uint32_t)_binary_obj_boot_bootother_size);

	cpu *c;
	for(c = &cpu_boot; c; c = c->next){
  101324:	c7 45 f4 00 b0 10 00 	movl   $0x10b000,-0xc(%ebp)
  10132b:	eb 5f                	jmp    10138c <cpu_bootothers+0xb9>
		if(c == cpu_cur())  // We''ve started already.
  10132d:	e8 67 fd ff ff       	call   101099 <cpu_cur>
  101332:	3b 45 f4             	cmp    -0xc(%ebp),%eax
  101335:	74 48                	je     10137f <cpu_bootothers+0xac>
			continue;

		// Fill in %esp, %eip and start code on cpu.
		*(void**)(code-4) = c->kstackhi;
  101337:	8b 45 f0             	mov    -0x10(%ebp),%eax
  10133a:	83 e8 04             	sub    $0x4,%eax
  10133d:	8b 55 f4             	mov    -0xc(%ebp),%edx
  101340:	81 c2 00 10 00 00    	add    $0x1000,%edx
  101346:	89 10                	mov    %edx,(%eax)
		*(void**)(code-8) = init;
  101348:	8b 45 f0             	mov    -0x10(%ebp),%eax
  10134b:	83 e8 08             	sub    $0x8,%eax
  10134e:	c7 00 91 00 10 00    	movl   $0x100091,(%eax)
		lapic_startcpu(c->id, (uint32_t)code);
  101354:	8b 55 f0             	mov    -0x10(%ebp),%edx
  101357:	8b 45 f4             	mov    -0xc(%ebp),%eax
  10135a:	0f b6 80 ac 00 00 00 	movzbl 0xac(%eax),%eax
  101361:	0f b6 c0             	movzbl %al,%eax
  101364:	89 54 24 04          	mov    %edx,0x4(%esp)
  101368:	89 04 24             	mov    %eax,(%esp)
  10136b:	e8 e6 5d 00 00       	call   107156 <lapic_startcpu>

		// Wait for cpu to get through bootstrap.
		while(c->booted == 0)
  101370:	8b 45 f4             	mov    -0xc(%ebp),%eax
  101373:	8b 80 b0 00 00 00    	mov    0xb0(%eax),%eax
  101379:	85 c0                	test   %eax,%eax
  10137b:	74 f3                	je     101370 <cpu_bootothers+0x9d>
  10137d:	eb 01                	jmp    101380 <cpu_bootothers+0xad>
		(uint32_t)_binary_obj_boot_bootother_size);

	cpu *c;
	for(c = &cpu_boot; c; c = c->next){
		if(c == cpu_cur())  // We''ve started already.
			continue;
  10137f:	90                   	nop
	uint8_t *code = (uint8_t*)0x1000;
	memmove(code, _binary_obj_boot_bootother_start,
		(uint32_t)_binary_obj_boot_bootother_size);

	cpu *c;
	for(c = &cpu_boot; c; c = c->next){
  101380:	8b 45 f4             	mov    -0xc(%ebp),%eax
  101383:	8b 80 a8 00 00 00    	mov    0xa8(%eax),%eax
  101389:	89 45 f4             	mov    %eax,-0xc(%ebp)
  10138c:	83 7d f4 00          	cmpl   $0x0,-0xc(%ebp)
  101390:	75 9b                	jne    10132d <cpu_bootothers+0x5a>

		// Wait for cpu to get through bootstrap.
		while(c->booted == 0)
			;
	}
}
  101392:	c9                   	leave  
  101393:	c3                   	ret    

00101394 <cpu_cur>:
#define cpu_disabled(c)		0

// Find the CPU struct representing the current CPU.
// It always resides at the bottom of the page containing the CPU's stack.
static inline cpu *
cpu_cur() {
  101394:	55                   	push   %ebp
  101395:	89 e5                	mov    %esp,%ebp
  101397:	83 ec 28             	sub    $0x28,%esp

static gcc_inline uint32_t
read_esp(void)
{
        uint32_t esp;
        __asm __volatile("movl %%esp,%0" : "=rm" (esp));
  10139a:	89 65 f4             	mov    %esp,-0xc(%ebp)
        return esp;
  10139d:	8b 45 f4             	mov    -0xc(%ebp),%eax
	cpu *c = (cpu*)ROUNDDOWN(read_esp(), PAGESIZE);
  1013a0:	89 45 f0             	mov    %eax,-0x10(%ebp)
  1013a3:	8b 45 f0             	mov    -0x10(%ebp),%eax
  1013a6:	25 00 f0 ff ff       	and    $0xfffff000,%eax
  1013ab:	89 45 ec             	mov    %eax,-0x14(%ebp)
	assert(c->magic == CPU_MAGIC);
  1013ae:	8b 45 ec             	mov    -0x14(%ebp),%eax
  1013b1:	8b 80 b8 00 00 00    	mov    0xb8(%eax),%eax
  1013b7:	3d 32 54 76 98       	cmp    $0x98765432,%eax
  1013bc:	74 24                	je     1013e2 <cpu_cur+0x4e>
  1013be:	c7 44 24 0c 80 86 10 	movl   $0x108680,0xc(%esp)
  1013c5:	00 
  1013c6:	c7 44 24 08 96 86 10 	movl   $0x108696,0x8(%esp)
  1013cd:	00 
  1013ce:	c7 44 24 04 5c 00 00 	movl   $0x5c,0x4(%esp)
  1013d5:	00 
  1013d6:	c7 04 24 ab 86 10 00 	movl   $0x1086ab,(%esp)
  1013dd:	e8 9f f0 ff ff       	call   100481 <debug_panic>
	return c;
  1013e2:	8b 45 ec             	mov    -0x14(%ebp),%eax
}
  1013e5:	c9                   	leave  
  1013e6:	c3                   	ret    

001013e7 <cpu_onboot>:

// Returns true if we're running on the bootstrap CPU.
static inline int
cpu_onboot() {
  1013e7:	55                   	push   %ebp
  1013e8:	89 e5                	mov    %esp,%ebp
  1013ea:	83 ec 08             	sub    $0x8,%esp
	return cpu_cur() == &cpu_boot;
  1013ed:	e8 a2 ff ff ff       	call   101394 <cpu_cur>
  1013f2:	3d 00 b0 10 00       	cmp    $0x10b000,%eax
  1013f7:	0f 94 c0             	sete   %al
  1013fa:	0f b6 c0             	movzbl %al,%eax
}
  1013fd:	c9                   	leave  
  1013fe:	c3                   	ret    

001013ff <trap_init_idt>:

extern uint32_t vectors[];

static void
trap_init_idt(void)
{
  1013ff:	55                   	push   %ebp
  101400:	89 e5                	mov    %esp,%ebp
  101402:	83 ec 10             	sub    $0x10,%esp
	extern segdesc gdt[];
	
	//panic("trap_init() not implemented.");
	int i;

	for(i = 0; i < 20; i++)
  101405:	c7 45 fc 00 00 00 00 	movl   $0x0,-0x4(%ebp)
  10140c:	e9 bc 00 00 00       	jmp    1014cd <trap_init_idt+0xce>
	{
		SETGATE(idt[i], 1, CPU_GDT_KCODE, vectors[i], 3);
  101411:	8b 45 fc             	mov    -0x4(%ebp),%eax
  101414:	8b 55 fc             	mov    -0x4(%ebp),%edx
  101417:	8b 14 95 10 c0 10 00 	mov    0x10c010(,%edx,4),%edx
  10141e:	66 89 14 c5 20 a2 11 	mov    %dx,0x11a220(,%eax,8)
  101425:	00 
  101426:	8b 45 fc             	mov    -0x4(%ebp),%eax
  101429:	66 c7 04 c5 22 a2 11 	movw   $0x8,0x11a222(,%eax,8)
  101430:	00 08 00 
  101433:	8b 45 fc             	mov    -0x4(%ebp),%eax
  101436:	0f b6 14 c5 24 a2 11 	movzbl 0x11a224(,%eax,8),%edx
  10143d:	00 
  10143e:	83 e2 e0             	and    $0xffffffe0,%edx
  101441:	88 14 c5 24 a2 11 00 	mov    %dl,0x11a224(,%eax,8)
  101448:	8b 45 fc             	mov    -0x4(%ebp),%eax
  10144b:	0f b6 14 c5 24 a2 11 	movzbl 0x11a224(,%eax,8),%edx
  101452:	00 
  101453:	83 e2 1f             	and    $0x1f,%edx
  101456:	88 14 c5 24 a2 11 00 	mov    %dl,0x11a224(,%eax,8)
  10145d:	8b 45 fc             	mov    -0x4(%ebp),%eax
  101460:	0f b6 14 c5 25 a2 11 	movzbl 0x11a225(,%eax,8),%edx
  101467:	00 
  101468:	83 ca 0f             	or     $0xf,%edx
  10146b:	88 14 c5 25 a2 11 00 	mov    %dl,0x11a225(,%eax,8)
  101472:	8b 45 fc             	mov    -0x4(%ebp),%eax
  101475:	0f b6 14 c5 25 a2 11 	movzbl 0x11a225(,%eax,8),%edx
  10147c:	00 
  10147d:	83 e2 ef             	and    $0xffffffef,%edx
  101480:	88 14 c5 25 a2 11 00 	mov    %dl,0x11a225(,%eax,8)
  101487:	8b 45 fc             	mov    -0x4(%ebp),%eax
  10148a:	0f b6 14 c5 25 a2 11 	movzbl 0x11a225(,%eax,8),%edx
  101491:	00 
  101492:	83 ca 60             	or     $0x60,%edx
  101495:	88 14 c5 25 a2 11 00 	mov    %dl,0x11a225(,%eax,8)
  10149c:	8b 45 fc             	mov    -0x4(%ebp),%eax
  10149f:	0f b6 14 c5 25 a2 11 	movzbl 0x11a225(,%eax,8),%edx
  1014a6:	00 
  1014a7:	83 ca 80             	or     $0xffffff80,%edx
  1014aa:	88 14 c5 25 a2 11 00 	mov    %dl,0x11a225(,%eax,8)
  1014b1:	8b 45 fc             	mov    -0x4(%ebp),%eax
  1014b4:	8b 55 fc             	mov    -0x4(%ebp),%edx
  1014b7:	8b 14 95 10 c0 10 00 	mov    0x10c010(,%edx,4),%edx
  1014be:	c1 ea 10             	shr    $0x10,%edx
  1014c1:	66 89 14 c5 26 a2 11 	mov    %dx,0x11a226(,%eax,8)
  1014c8:	00 
	extern segdesc gdt[];
	
	//panic("trap_init() not implemented.");
	int i;

	for(i = 0; i < 20; i++)
  1014c9:	83 45 fc 01          	addl   $0x1,-0x4(%ebp)
  1014cd:	83 7d fc 13          	cmpl   $0x13,-0x4(%ebp)
  1014d1:	0f 8e 3a ff ff ff    	jle    101411 <trap_init_idt+0x12>
	{
		SETGATE(idt[i], 1, CPU_GDT_KCODE, vectors[i], 3);
	}
	SETGATE(idt[T_SECEV], 1, CPU_GDT_KCODE, vectors[T_SECEV], 3);
  1014d7:	a1 88 c0 10 00       	mov    0x10c088,%eax
  1014dc:	66 a3 10 a3 11 00    	mov    %ax,0x11a310
  1014e2:	66 c7 05 12 a3 11 00 	movw   $0x8,0x11a312
  1014e9:	08 00 
  1014eb:	0f b6 05 14 a3 11 00 	movzbl 0x11a314,%eax
  1014f2:	83 e0 e0             	and    $0xffffffe0,%eax
  1014f5:	a2 14 a3 11 00       	mov    %al,0x11a314
  1014fa:	0f b6 05 14 a3 11 00 	movzbl 0x11a314,%eax
  101501:	83 e0 1f             	and    $0x1f,%eax
  101504:	a2 14 a3 11 00       	mov    %al,0x11a314
  101509:	0f b6 05 15 a3 11 00 	movzbl 0x11a315,%eax
  101510:	83 c8 0f             	or     $0xf,%eax
  101513:	a2 15 a3 11 00       	mov    %al,0x11a315
  101518:	0f b6 05 15 a3 11 00 	movzbl 0x11a315,%eax
  10151f:	83 e0 ef             	and    $0xffffffef,%eax
  101522:	a2 15 a3 11 00       	mov    %al,0x11a315
  101527:	0f b6 05 15 a3 11 00 	movzbl 0x11a315,%eax
  10152e:	83 c8 60             	or     $0x60,%eax
  101531:	a2 15 a3 11 00       	mov    %al,0x11a315
  101536:	0f b6 05 15 a3 11 00 	movzbl 0x11a315,%eax
  10153d:	83 c8 80             	or     $0xffffff80,%eax
  101540:	a2 15 a3 11 00       	mov    %al,0x11a315
  101545:	a1 88 c0 10 00       	mov    0x10c088,%eax
  10154a:	c1 e8 10             	shr    $0x10,%eax
  10154d:	66 a3 16 a3 11 00    	mov    %ax,0x11a316
	SETGATE(idt[T_SYSCALL], 1, CPU_GDT_KCODE, vectors[T_SYSCALL], 3);
  101553:	a1 d0 c0 10 00       	mov    0x10c0d0,%eax
  101558:	66 a3 a0 a3 11 00    	mov    %ax,0x11a3a0
  10155e:	66 c7 05 a2 a3 11 00 	movw   $0x8,0x11a3a2
  101565:	08 00 
  101567:	0f b6 05 a4 a3 11 00 	movzbl 0x11a3a4,%eax
  10156e:	83 e0 e0             	and    $0xffffffe0,%eax
  101571:	a2 a4 a3 11 00       	mov    %al,0x11a3a4
  101576:	0f b6 05 a4 a3 11 00 	movzbl 0x11a3a4,%eax
  10157d:	83 e0 1f             	and    $0x1f,%eax
  101580:	a2 a4 a3 11 00       	mov    %al,0x11a3a4
  101585:	0f b6 05 a5 a3 11 00 	movzbl 0x11a3a5,%eax
  10158c:	83 c8 0f             	or     $0xf,%eax
  10158f:	a2 a5 a3 11 00       	mov    %al,0x11a3a5
  101594:	0f b6 05 a5 a3 11 00 	movzbl 0x11a3a5,%eax
  10159b:	83 e0 ef             	and    $0xffffffef,%eax
  10159e:	a2 a5 a3 11 00       	mov    %al,0x11a3a5
  1015a3:	0f b6 05 a5 a3 11 00 	movzbl 0x11a3a5,%eax
  1015aa:	83 c8 60             	or     $0x60,%eax
  1015ad:	a2 a5 a3 11 00       	mov    %al,0x11a3a5
  1015b2:	0f b6 05 a5 a3 11 00 	movzbl 0x11a3a5,%eax
  1015b9:	83 c8 80             	or     $0xffffff80,%eax
  1015bc:	a2 a5 a3 11 00       	mov    %al,0x11a3a5
  1015c1:	a1 d0 c0 10 00       	mov    0x10c0d0,%eax
  1015c6:	c1 e8 10             	shr    $0x10,%eax
  1015c9:	66 a3 a6 a3 11 00    	mov    %ax,0x11a3a6
	SETGATE(idt[T_LTIMER], 1, CPU_GDT_KCODE, vectors[T_LTIMER], 3);
  1015cf:	a1 d4 c0 10 00       	mov    0x10c0d4,%eax
  1015d4:	66 a3 a8 a3 11 00    	mov    %ax,0x11a3a8
  1015da:	66 c7 05 aa a3 11 00 	movw   $0x8,0x11a3aa
  1015e1:	08 00 
  1015e3:	0f b6 05 ac a3 11 00 	movzbl 0x11a3ac,%eax
  1015ea:	83 e0 e0             	and    $0xffffffe0,%eax
  1015ed:	a2 ac a3 11 00       	mov    %al,0x11a3ac
  1015f2:	0f b6 05 ac a3 11 00 	movzbl 0x11a3ac,%eax
  1015f9:	83 e0 1f             	and    $0x1f,%eax
  1015fc:	a2 ac a3 11 00       	mov    %al,0x11a3ac
  101601:	0f b6 05 ad a3 11 00 	movzbl 0x11a3ad,%eax
  101608:	83 c8 0f             	or     $0xf,%eax
  10160b:	a2 ad a3 11 00       	mov    %al,0x11a3ad
  101610:	0f b6 05 ad a3 11 00 	movzbl 0x11a3ad,%eax
  101617:	83 e0 ef             	and    $0xffffffef,%eax
  10161a:	a2 ad a3 11 00       	mov    %al,0x11a3ad
  10161f:	0f b6 05 ad a3 11 00 	movzbl 0x11a3ad,%eax
  101626:	83 c8 60             	or     $0x60,%eax
  101629:	a2 ad a3 11 00       	mov    %al,0x11a3ad
  10162e:	0f b6 05 ad a3 11 00 	movzbl 0x11a3ad,%eax
  101635:	83 c8 80             	or     $0xffffff80,%eax
  101638:	a2 ad a3 11 00       	mov    %al,0x11a3ad
  10163d:	a1 d4 c0 10 00       	mov    0x10c0d4,%eax
  101642:	c1 e8 10             	shr    $0x10,%eax
  101645:	66 a3 ae a3 11 00    	mov    %ax,0x11a3ae
}
  10164b:	c9                   	leave  
  10164c:	c3                   	ret    

0010164d <trap_init>:

void
trap_init(void)
{
  10164d:	55                   	push   %ebp
  10164e:	89 e5                	mov    %esp,%ebp
  101650:	83 ec 08             	sub    $0x8,%esp
	// The first time we get called on the bootstrap processor,
	// initialize the IDT.  Other CPUs will share the same IDT.
	if (cpu_onboot())
  101653:	e8 8f fd ff ff       	call   1013e7 <cpu_onboot>
  101658:	85 c0                	test   %eax,%eax
  10165a:	74 05                	je     101661 <trap_init+0x14>
		trap_init_idt();
  10165c:	e8 9e fd ff ff       	call   1013ff <trap_init_idt>

	// Load the IDT into this processor's IDT register.
	asm volatile("lidt %0" : : "m" (idt_pd));
  101661:	0f 01 1d 04 c0 10 00 	lidtl  0x10c004

	// Check for the correct IDT and trap handler operation.
	if (cpu_onboot())
  101668:	e8 7a fd ff ff       	call   1013e7 <cpu_onboot>
  10166d:	85 c0                	test   %eax,%eax
  10166f:	74 05                	je     101676 <trap_init+0x29>
		trap_check_kernel();
  101671:	e8 c1 02 00 00       	call   101937 <trap_check_kernel>
}
  101676:	c9                   	leave  
  101677:	c3                   	ret    

00101678 <trap_name>:

const char *trap_name(int trapno)
{
  101678:	55                   	push   %ebp
  101679:	89 e5                	mov    %esp,%ebp
		"Alignment Check",
		"Machine-Check",
		"SIMD Floating-Point Exception"
	};

	if (trapno < sizeof(excnames)/sizeof(excnames[0]))
  10167b:	8b 45 08             	mov    0x8(%ebp),%eax
  10167e:	83 f8 13             	cmp    $0x13,%eax
  101681:	77 0c                	ja     10168f <trap_name+0x17>
		return excnames[trapno];
  101683:	8b 45 08             	mov    0x8(%ebp),%eax
  101686:	8b 04 85 c0 8a 10 00 	mov    0x108ac0(,%eax,4),%eax
  10168d:	eb 25                	jmp    1016b4 <trap_name+0x3c>
	if (trapno == T_SYSCALL)
  10168f:	83 7d 08 30          	cmpl   $0x30,0x8(%ebp)
  101693:	75 07                	jne    10169c <trap_name+0x24>
		return "System call";
  101695:	b8 b8 86 10 00       	mov    $0x1086b8,%eax
  10169a:	eb 18                	jmp    1016b4 <trap_name+0x3c>
	if (trapno >= T_IRQ0 && trapno < T_IRQ0 + 16)
  10169c:	83 7d 08 1f          	cmpl   $0x1f,0x8(%ebp)
  1016a0:	7e 0d                	jle    1016af <trap_name+0x37>
  1016a2:	83 7d 08 2f          	cmpl   $0x2f,0x8(%ebp)
  1016a6:	7f 07                	jg     1016af <trap_name+0x37>
		return "Hardware Interrupt";
  1016a8:	b8 c4 86 10 00       	mov    $0x1086c4,%eax
  1016ad:	eb 05                	jmp    1016b4 <trap_name+0x3c>
	return "(unknown trap)";
  1016af:	b8 d7 86 10 00       	mov    $0x1086d7,%eax
}
  1016b4:	5d                   	pop    %ebp
  1016b5:	c3                   	ret    

001016b6 <trap_print_regs>:

void
trap_print_regs(pushregs *regs)
{
  1016b6:	55                   	push   %ebp
  1016b7:	89 e5                	mov    %esp,%ebp
  1016b9:	83 ec 18             	sub    $0x18,%esp
	cprintf("  edi  0x%08x\n", regs->edi);
  1016bc:	8b 45 08             	mov    0x8(%ebp),%eax
  1016bf:	8b 00                	mov    (%eax),%eax
  1016c1:	89 44 24 04          	mov    %eax,0x4(%esp)
  1016c5:	c7 04 24 e6 86 10 00 	movl   $0x1086e6,(%esp)
  1016cc:	e8 8e 64 00 00       	call   107b5f <cprintf>
	cprintf("  esi  0x%08x\n", regs->esi);
  1016d1:	8b 45 08             	mov    0x8(%ebp),%eax
  1016d4:	8b 40 04             	mov    0x4(%eax),%eax
  1016d7:	89 44 24 04          	mov    %eax,0x4(%esp)
  1016db:	c7 04 24 f5 86 10 00 	movl   $0x1086f5,(%esp)
  1016e2:	e8 78 64 00 00       	call   107b5f <cprintf>
	cprintf("  ebp  0x%08x\n", regs->ebp);
  1016e7:	8b 45 08             	mov    0x8(%ebp),%eax
  1016ea:	8b 40 08             	mov    0x8(%eax),%eax
  1016ed:	89 44 24 04          	mov    %eax,0x4(%esp)
  1016f1:	c7 04 24 04 87 10 00 	movl   $0x108704,(%esp)
  1016f8:	e8 62 64 00 00       	call   107b5f <cprintf>
//	cprintf("  oesp 0x%08x\n", regs->oesp);	don't print - useless
	cprintf("  ebx  0x%08x\n", regs->ebx);
  1016fd:	8b 45 08             	mov    0x8(%ebp),%eax
  101700:	8b 40 10             	mov    0x10(%eax),%eax
  101703:	89 44 24 04          	mov    %eax,0x4(%esp)
  101707:	c7 04 24 13 87 10 00 	movl   $0x108713,(%esp)
  10170e:	e8 4c 64 00 00       	call   107b5f <cprintf>
	cprintf("  edx  0x%08x\n", regs->edx);
  101713:	8b 45 08             	mov    0x8(%ebp),%eax
  101716:	8b 40 14             	mov    0x14(%eax),%eax
  101719:	89 44 24 04          	mov    %eax,0x4(%esp)
  10171d:	c7 04 24 22 87 10 00 	movl   $0x108722,(%esp)
  101724:	e8 36 64 00 00       	call   107b5f <cprintf>
	cprintf("  ecx  0x%08x\n", regs->ecx);
  101729:	8b 45 08             	mov    0x8(%ebp),%eax
  10172c:	8b 40 18             	mov    0x18(%eax),%eax
  10172f:	89 44 24 04          	mov    %eax,0x4(%esp)
  101733:	c7 04 24 31 87 10 00 	movl   $0x108731,(%esp)
  10173a:	e8 20 64 00 00       	call   107b5f <cprintf>
	cprintf("  eax  0x%08x\n", regs->eax);
  10173f:	8b 45 08             	mov    0x8(%ebp),%eax
  101742:	8b 40 1c             	mov    0x1c(%eax),%eax
  101745:	89 44 24 04          	mov    %eax,0x4(%esp)
  101749:	c7 04 24 40 87 10 00 	movl   $0x108740,(%esp)
  101750:	e8 0a 64 00 00       	call   107b5f <cprintf>
}
  101755:	c9                   	leave  
  101756:	c3                   	ret    

00101757 <trap_print>:

void
trap_print(trapframe *tf)
{
  101757:	55                   	push   %ebp
  101758:	89 e5                	mov    %esp,%ebp
  10175a:	83 ec 18             	sub    $0x18,%esp
	cprintf("TRAP frame at %p\n", tf);
  10175d:	8b 45 08             	mov    0x8(%ebp),%eax
  101760:	89 44 24 04          	mov    %eax,0x4(%esp)
  101764:	c7 04 24 4f 87 10 00 	movl   $0x10874f,(%esp)
  10176b:	e8 ef 63 00 00       	call   107b5f <cprintf>
	trap_print_regs(&tf->regs);
  101770:	8b 45 08             	mov    0x8(%ebp),%eax
  101773:	89 04 24             	mov    %eax,(%esp)
  101776:	e8 3b ff ff ff       	call   1016b6 <trap_print_regs>
	cprintf("  es   0x----%04x\n", tf->es);
  10177b:	8b 45 08             	mov    0x8(%ebp),%eax
  10177e:	0f b7 40 28          	movzwl 0x28(%eax),%eax
  101782:	0f b7 c0             	movzwl %ax,%eax
  101785:	89 44 24 04          	mov    %eax,0x4(%esp)
  101789:	c7 04 24 61 87 10 00 	movl   $0x108761,(%esp)
  101790:	e8 ca 63 00 00       	call   107b5f <cprintf>
	cprintf("  ds   0x----%04x\n", tf->ds);
  101795:	8b 45 08             	mov    0x8(%ebp),%eax
  101798:	0f b7 40 2c          	movzwl 0x2c(%eax),%eax
  10179c:	0f b7 c0             	movzwl %ax,%eax
  10179f:	89 44 24 04          	mov    %eax,0x4(%esp)
  1017a3:	c7 04 24 74 87 10 00 	movl   $0x108774,(%esp)
  1017aa:	e8 b0 63 00 00       	call   107b5f <cprintf>
	cprintf("  trap 0x%08x %s\n", tf->trapno, trap_name(tf->trapno));
  1017af:	8b 45 08             	mov    0x8(%ebp),%eax
  1017b2:	8b 40 30             	mov    0x30(%eax),%eax
  1017b5:	89 04 24             	mov    %eax,(%esp)
  1017b8:	e8 bb fe ff ff       	call   101678 <trap_name>
  1017bd:	8b 55 08             	mov    0x8(%ebp),%edx
  1017c0:	8b 52 30             	mov    0x30(%edx),%edx
  1017c3:	89 44 24 08          	mov    %eax,0x8(%esp)
  1017c7:	89 54 24 04          	mov    %edx,0x4(%esp)
  1017cb:	c7 04 24 87 87 10 00 	movl   $0x108787,(%esp)
  1017d2:	e8 88 63 00 00       	call   107b5f <cprintf>
	cprintf("  err  0x%08x\n", tf->err);
  1017d7:	8b 45 08             	mov    0x8(%ebp),%eax
  1017da:	8b 40 34             	mov    0x34(%eax),%eax
  1017dd:	89 44 24 04          	mov    %eax,0x4(%esp)
  1017e1:	c7 04 24 99 87 10 00 	movl   $0x108799,(%esp)
  1017e8:	e8 72 63 00 00       	call   107b5f <cprintf>
	cprintf("  eip  0x%08x\n", tf->eip);
  1017ed:	8b 45 08             	mov    0x8(%ebp),%eax
  1017f0:	8b 40 38             	mov    0x38(%eax),%eax
  1017f3:	89 44 24 04          	mov    %eax,0x4(%esp)
  1017f7:	c7 04 24 a8 87 10 00 	movl   $0x1087a8,(%esp)
  1017fe:	e8 5c 63 00 00       	call   107b5f <cprintf>
	cprintf("  cs   0x----%04x\n", tf->cs);
  101803:	8b 45 08             	mov    0x8(%ebp),%eax
  101806:	0f b7 40 3c          	movzwl 0x3c(%eax),%eax
  10180a:	0f b7 c0             	movzwl %ax,%eax
  10180d:	89 44 24 04          	mov    %eax,0x4(%esp)
  101811:	c7 04 24 b7 87 10 00 	movl   $0x1087b7,(%esp)
  101818:	e8 42 63 00 00       	call   107b5f <cprintf>
	cprintf("  flag 0x%08x\n", tf->eflags);
  10181d:	8b 45 08             	mov    0x8(%ebp),%eax
  101820:	8b 40 40             	mov    0x40(%eax),%eax
  101823:	89 44 24 04          	mov    %eax,0x4(%esp)
  101827:	c7 04 24 ca 87 10 00 	movl   $0x1087ca,(%esp)
  10182e:	e8 2c 63 00 00       	call   107b5f <cprintf>
	cprintf("  esp  0x%08x\n", tf->esp);
  101833:	8b 45 08             	mov    0x8(%ebp),%eax
  101836:	8b 40 44             	mov    0x44(%eax),%eax
  101839:	89 44 24 04          	mov    %eax,0x4(%esp)
  10183d:	c7 04 24 d9 87 10 00 	movl   $0x1087d9,(%esp)
  101844:	e8 16 63 00 00       	call   107b5f <cprintf>
	cprintf("  ss   0x----%04x\n", tf->ss);
  101849:	8b 45 08             	mov    0x8(%ebp),%eax
  10184c:	0f b7 40 48          	movzwl 0x48(%eax),%eax
  101850:	0f b7 c0             	movzwl %ax,%eax
  101853:	89 44 24 04          	mov    %eax,0x4(%esp)
  101857:	c7 04 24 e8 87 10 00 	movl   $0x1087e8,(%esp)
  10185e:	e8 fc 62 00 00       	call   107b5f <cprintf>
}
  101863:	c9                   	leave  
  101864:	c3                   	ret    

00101865 <trap>:

void gcc_noreturn
trap(trapframe *tf)
{
  101865:	55                   	push   %ebp
  101866:	89 e5                	mov    %esp,%ebp
  101868:	83 ec 28             	sub    $0x28,%esp
	// The user-level environment may have set the DF flag,
	// and some versions of GCC rely on DF being clear.
	asm volatile("cld" ::: "cc");
  10186b:	fc                   	cld    

// Disable external device interrupts.
static gcc_inline void
cli(void)
{
	asm volatile("cli");
  10186c:	fa                   	cli    
	cli();

	//cprintf("process %p is in trap(), trapno == %d\n", proc_cur(), tf->trapno);

	// If this trap was anticipated, just use the designated handler.
	cpu *c = cpu_cur();
  10186d:	e8 22 fb ff ff       	call   101394 <cpu_cur>
  101872:	89 45 f4             	mov    %eax,-0xc(%ebp)
	if (c->recover){
  101875:	8b 45 f4             	mov    -0xc(%ebp),%eax
  101878:	8b 80 a0 00 00 00    	mov    0xa0(%eax),%eax
  10187e:	85 c0                	test   %eax,%eax
  101880:	74 1e                	je     1018a0 <trap+0x3b>
		//cprintf("before c->recover()\n");
		c->recover(tf, c->recoverdata);}
  101882:	8b 45 f4             	mov    -0xc(%ebp),%eax
  101885:	8b 90 a0 00 00 00    	mov    0xa0(%eax),%edx
  10188b:	8b 45 f4             	mov    -0xc(%ebp),%eax
  10188e:	8b 80 a4 00 00 00    	mov    0xa4(%eax),%eax
  101894:	89 44 24 04          	mov    %eax,0x4(%esp)
  101898:	8b 45 08             	mov    0x8(%ebp),%eax
  10189b:	89 04 24             	mov    %eax,(%esp)
  10189e:	ff d2                	call   *%edx

	// Lab 2: your trap handling code here!
	if(tf->trapno == T_SYSCALL){
  1018a0:	8b 45 08             	mov    0x8(%ebp),%eax
  1018a3:	8b 40 30             	mov    0x30(%eax),%eax
  1018a6:	83 f8 30             	cmp    $0x30,%eax
  1018a9:	75 0b                	jne    1018b6 <trap+0x51>
		syscall(tf);
  1018ab:	8b 45 08             	mov    0x8(%ebp),%eax
  1018ae:	89 04 24             	mov    %eax,(%esp)
  1018b1:	e8 9f 23 00 00       	call   103c55 <syscall>
		//panic("unhandler system call\n");
	}

    
	switch(tf->trapno){
  1018b6:	8b 45 08             	mov    0x8(%ebp),%eax
  1018b9:	8b 40 30             	mov    0x30(%eax),%eax
  1018bc:	83 f8 27             	cmp    $0x27,%eax
  1018bf:	74 15                	je     1018d6 <trap+0x71>
  1018c1:	83 f8 31             	cmp    $0x31,%eax
  1018c4:	75 2c                	jne    1018f2 <trap+0x8d>
		case T_LTIMER:
			//cprintf("T_LTIMER proc: 0x%x\n",proc_cur());
			lapic_eoi();
  1018c6:	e8 fc 57 00 00       	call   1070c7 <lapic_eoi>
			proc_yield(tf);
  1018cb:	8b 45 08             	mov    0x8(%ebp),%eax
  1018ce:	89 04 24             	mov    %eax,(%esp)
  1018d1:	e8 c2 17 00 00       	call   103098 <proc_yield>
			break;
		case T_IRQ0 + IRQ_SPURIOUS:
			panic(" IRQ_SPURIOUS ");
  1018d6:	c7 44 24 08 fb 87 10 	movl   $0x1087fb,0x8(%esp)
  1018dd:	00 
  1018de:	c7 44 24 04 a5 00 00 	movl   $0xa5,0x4(%esp)
  1018e5:	00 
  1018e6:	c7 04 24 0a 88 10 00 	movl   $0x10880a,(%esp)
  1018ed:	e8 8f eb ff ff       	call   100481 <debug_panic>

		default:
			proc_ret(tf, -1);
  1018f2:	c7 44 24 04 ff ff ff 	movl   $0xffffffff,0x4(%esp)
  1018f9:	ff 
  1018fa:	8b 45 08             	mov    0x8(%ebp),%eax
  1018fd:	89 04 24             	mov    %eax,(%esp)
  101900:	e8 d1 17 00 00       	call   1030d6 <proc_ret>

00101905 <trap_check_recover>:

// Helper function for trap_check_recover(), below:
// handles "anticipated" traps by simply resuming at a new EIP.
static void gcc_noreturn
trap_check_recover(trapframe *tf, void *recoverdata)
{
  101905:	55                   	push   %ebp
  101906:	89 e5                	mov    %esp,%ebp
  101908:	83 ec 28             	sub    $0x28,%esp
	trap_check_args *args = recoverdata;
  10190b:	8b 45 0c             	mov    0xc(%ebp),%eax
  10190e:	89 45 f4             	mov    %eax,-0xc(%ebp)
	tf->eip = (uint32_t) args->reip;	// Use recovery EIP on return
  101911:	8b 45 f4             	mov    -0xc(%ebp),%eax
  101914:	8b 00                	mov    (%eax),%eax
  101916:	89 c2                	mov    %eax,%edx
  101918:	8b 45 08             	mov    0x8(%ebp),%eax
  10191b:	89 50 38             	mov    %edx,0x38(%eax)
	args->trapno = tf->trapno;		// Return trap number
  10191e:	8b 45 08             	mov    0x8(%ebp),%eax
  101921:	8b 40 30             	mov    0x30(%eax),%eax
  101924:	89 c2                	mov    %eax,%edx
  101926:	8b 45 f4             	mov    -0xc(%ebp),%eax
  101929:	89 50 04             	mov    %edx,0x4(%eax)
	trap_return(tf);
  10192c:	8b 45 08             	mov    0x8(%ebp),%eax
  10192f:	89 04 24             	mov    %eax,(%esp)
  101932:	e8 b9 a7 00 00       	call   10c0f0 <trap_return>

00101937 <trap_check_kernel>:

// Check for correct handling of traps from kernel mode.
// Called on the boot CPU after trap_init() and trap_setup().
void
trap_check_kernel(void)
{
  101937:	55                   	push   %ebp
  101938:	89 e5                	mov    %esp,%ebp
  10193a:	83 ec 28             	sub    $0x28,%esp

static gcc_inline uint16_t
read_cs(void)
{
        uint16_t cs;
        __asm __volatile("movw %%cs,%0" : "=rm" (cs));
  10193d:	8c 4d f6             	mov    %cs,-0xa(%ebp)
        return cs;
  101940:	0f b7 45 f6          	movzwl -0xa(%ebp),%eax
	assert((read_cs() & 3) == 0);	// better be in kernel mode!
  101944:	0f b7 c0             	movzwl %ax,%eax
  101947:	83 e0 03             	and    $0x3,%eax
  10194a:	85 c0                	test   %eax,%eax
  10194c:	74 24                	je     101972 <trap_check_kernel+0x3b>
  10194e:	c7 44 24 0c 16 88 10 	movl   $0x108816,0xc(%esp)
  101955:	00 
  101956:	c7 44 24 08 96 86 10 	movl   $0x108696,0x8(%esp)
  10195d:	00 
  10195e:	c7 44 24 04 c5 00 00 	movl   $0xc5,0x4(%esp)
  101965:	00 
  101966:	c7 04 24 0a 88 10 00 	movl   $0x10880a,(%esp)
  10196d:	e8 0f eb ff ff       	call   100481 <debug_panic>

	cpu *c = cpu_cur();
  101972:	e8 1d fa ff ff       	call   101394 <cpu_cur>
  101977:	89 45 f0             	mov    %eax,-0x10(%ebp)
	c->recover = trap_check_recover;
  10197a:	8b 45 f0             	mov    -0x10(%ebp),%eax
  10197d:	c7 80 a0 00 00 00 05 	movl   $0x101905,0xa0(%eax)
  101984:	19 10 00 
	trap_check(&c->recoverdata);
  101987:	8b 45 f0             	mov    -0x10(%ebp),%eax
  10198a:	05 a4 00 00 00       	add    $0xa4,%eax
  10198f:	89 04 24             	mov    %eax,(%esp)
  101992:	e8 96 00 00 00       	call   101a2d <trap_check>
	c->recover = NULL;	// No more mr. nice-guy; traps are real again
  101997:	8b 45 f0             	mov    -0x10(%ebp),%eax
  10199a:	c7 80 a0 00 00 00 00 	movl   $0x0,0xa0(%eax)
  1019a1:	00 00 00 

	cprintf("trap_check_kernel() succeeded!\n");
  1019a4:	c7 04 24 2c 88 10 00 	movl   $0x10882c,(%esp)
  1019ab:	e8 af 61 00 00       	call   107b5f <cprintf>
}
  1019b0:	c9                   	leave  
  1019b1:	c3                   	ret    

001019b2 <trap_check_user>:
// Called from user() in kern/init.c, only in lab 1.
// We assume the "current cpu" is always the boot cpu;
// this true only because lab 1 doesn't start any other CPUs.
void
trap_check_user(void)
{
  1019b2:	55                   	push   %ebp
  1019b3:	89 e5                	mov    %esp,%ebp
  1019b5:	83 ec 28             	sub    $0x28,%esp

static gcc_inline uint16_t
read_cs(void)
{
        uint16_t cs;
        __asm __volatile("movw %%cs,%0" : "=rm" (cs));
  1019b8:	8c 4d f6             	mov    %cs,-0xa(%ebp)
        return cs;
  1019bb:	0f b7 45 f6          	movzwl -0xa(%ebp),%eax
	assert((read_cs() & 3) == 3);	// better be in user mode!
  1019bf:	0f b7 c0             	movzwl %ax,%eax
  1019c2:	83 e0 03             	and    $0x3,%eax
  1019c5:	83 f8 03             	cmp    $0x3,%eax
  1019c8:	74 24                	je     1019ee <trap_check_user+0x3c>
  1019ca:	c7 44 24 0c 4c 88 10 	movl   $0x10884c,0xc(%esp)
  1019d1:	00 
  1019d2:	c7 44 24 08 96 86 10 	movl   $0x108696,0x8(%esp)
  1019d9:	00 
  1019da:	c7 44 24 04 d6 00 00 	movl   $0xd6,0x4(%esp)
  1019e1:	00 
  1019e2:	c7 04 24 0a 88 10 00 	movl   $0x10880a,(%esp)
  1019e9:	e8 93 ea ff ff       	call   100481 <debug_panic>

	cpu *c = &cpu_boot;	// cpu_cur doesn't work from user mode!
  1019ee:	c7 45 f0 00 b0 10 00 	movl   $0x10b000,-0x10(%ebp)
	c->recover = trap_check_recover;
  1019f5:	8b 45 f0             	mov    -0x10(%ebp),%eax
  1019f8:	c7 80 a0 00 00 00 05 	movl   $0x101905,0xa0(%eax)
  1019ff:	19 10 00 
	trap_check(&c->recoverdata);
  101a02:	8b 45 f0             	mov    -0x10(%ebp),%eax
  101a05:	05 a4 00 00 00       	add    $0xa4,%eax
  101a0a:	89 04 24             	mov    %eax,(%esp)
  101a0d:	e8 1b 00 00 00       	call   101a2d <trap_check>
	c->recover = NULL;	// No more mr. nice-guy; traps are real again
  101a12:	8b 45 f0             	mov    -0x10(%ebp),%eax
  101a15:	c7 80 a0 00 00 00 00 	movl   $0x0,0xa0(%eax)
  101a1c:	00 00 00 

	cprintf("trap_check_user() succeeded!\n");
  101a1f:	c7 04 24 61 88 10 00 	movl   $0x108861,(%esp)
  101a26:	e8 34 61 00 00       	call   107b5f <cprintf>
}
  101a2b:	c9                   	leave  
  101a2c:	c3                   	ret    

00101a2d <trap_check>:
void after_priv();

// Multi-purpose trap checking function.
void
trap_check(void **argsp)
{
  101a2d:	55                   	push   %ebp
  101a2e:	89 e5                	mov    %esp,%ebp
  101a30:	57                   	push   %edi
  101a31:	56                   	push   %esi
  101a32:	53                   	push   %ebx
  101a33:	83 ec 3c             	sub    $0x3c,%esp
	volatile int cookie = 0xfeedface;
  101a36:	c7 45 dc ce fa ed fe 	movl   $0xfeedface,-0x24(%ebp)
	volatile trap_check_args args;
	*argsp = (void*)&args;	// provide args needed for trap recovery
  101a3d:	8b 45 08             	mov    0x8(%ebp),%eax
  101a40:	8d 55 d4             	lea    -0x2c(%ebp),%edx
  101a43:	89 10                	mov    %edx,(%eax)

	// Try a divide by zero trap.
	// Be careful when using && to take the address or a label:
	// some versions of GCC (4.4.2 at least) will incorrectly try to
	// eliminate code it thinks is _only_ reachable via such a pointer.
	args.reip = after_div0;
  101a45:	c7 45 d4 7c 1a 10 00 	movl   $0x101a7c,-0x2c(%ebp)
	cprintf("1. &args.trapno == %x\n", &args);
  101a4c:	8d 45 d4             	lea    -0x2c(%ebp),%eax
  101a4f:	89 44 24 04          	mov    %eax,0x4(%esp)
  101a53:	c7 04 24 7f 88 10 00 	movl   $0x10887f,(%esp)
  101a5a:	e8 00 61 00 00       	call   107b5f <cprintf>

static gcc_inline uint32_t
read_esp(void)
{
        uint32_t esp;
        __asm __volatile("movl %%esp,%0" : "=rm" (esp));
  101a5f:	89 65 e0             	mov    %esp,-0x20(%ebp)
        return esp;
  101a62:	8b 45 e0             	mov    -0x20(%ebp),%eax
	cprintf(">>>>>>>>>>in trap_check : esp : 0x%x\n",read_esp());
  101a65:	89 44 24 04          	mov    %eax,0x4(%esp)
  101a69:	c7 04 24 98 88 10 00 	movl   $0x108898,(%esp)
  101a70:	e8 ea 60 00 00       	call   107b5f <cprintf>
	asm volatile("div %0,%0; after_div0:" : : "r" (0));
  101a75:	b8 00 00 00 00       	mov    $0x0,%eax
  101a7a:	f7 f0                	div    %eax

00101a7c <after_div0>:
	cprintf("2. &args.trapno == %x\n", &args);
  101a7c:	8d 45 d4             	lea    -0x2c(%ebp),%eax
  101a7f:	89 44 24 04          	mov    %eax,0x4(%esp)
  101a83:	c7 04 24 be 88 10 00 	movl   $0x1088be,(%esp)
  101a8a:	e8 d0 60 00 00       	call   107b5f <cprintf>
	assert(args.trapno == T_DIVIDE);
  101a8f:	8b 45 d8             	mov    -0x28(%ebp),%eax
  101a92:	85 c0                	test   %eax,%eax
  101a94:	74 24                	je     101aba <after_div0+0x3e>
  101a96:	c7 44 24 0c d5 88 10 	movl   $0x1088d5,0xc(%esp)
  101a9d:	00 
  101a9e:	c7 44 24 08 96 86 10 	movl   $0x108696,0x8(%esp)
  101aa5:	00 
  101aa6:	c7 44 24 04 f9 00 00 	movl   $0xf9,0x4(%esp)
  101aad:	00 
  101aae:	c7 04 24 0a 88 10 00 	movl   $0x10880a,(%esp)
  101ab5:	e8 c7 e9 ff ff       	call   100481 <debug_panic>

	// Make sure we got our correct stack back with us.
	// The asm ensures gcc uses ebp/esp to get the cookie.
	asm volatile("" : : : "eax","ebx","ecx","edx","esi","edi");
	assert(cookie == 0xfeedface);
  101aba:	8b 45 dc             	mov    -0x24(%ebp),%eax
  101abd:	3d ce fa ed fe       	cmp    $0xfeedface,%eax
  101ac2:	74 24                	je     101ae8 <after_div0+0x6c>
  101ac4:	c7 44 24 0c ed 88 10 	movl   $0x1088ed,0xc(%esp)
  101acb:	00 
  101acc:	c7 44 24 08 96 86 10 	movl   $0x108696,0x8(%esp)
  101ad3:	00 
  101ad4:	c7 44 24 04 fe 00 00 	movl   $0xfe,0x4(%esp)
  101adb:	00 
  101adc:	c7 04 24 0a 88 10 00 	movl   $0x10880a,(%esp)
  101ae3:	e8 99 e9 ff ff       	call   100481 <debug_panic>

	// Breakpoint trap
	args.reip = after_breakpoint;
  101ae8:	c7 45 d4 f0 1a 10 00 	movl   $0x101af0,-0x2c(%ebp)
	asm volatile("int3; after_breakpoint:");
  101aef:	cc                   	int3   

00101af0 <after_breakpoint>:
	assert(args.trapno == T_BRKPT);
  101af0:	8b 45 d8             	mov    -0x28(%ebp),%eax
  101af3:	83 f8 03             	cmp    $0x3,%eax
  101af6:	74 24                	je     101b1c <after_breakpoint+0x2c>
  101af8:	c7 44 24 0c 02 89 10 	movl   $0x108902,0xc(%esp)
  101aff:	00 
  101b00:	c7 44 24 08 96 86 10 	movl   $0x108696,0x8(%esp)
  101b07:	00 
  101b08:	c7 44 24 04 03 01 00 	movl   $0x103,0x4(%esp)
  101b0f:	00 
  101b10:	c7 04 24 0a 88 10 00 	movl   $0x10880a,(%esp)
  101b17:	e8 65 e9 ff ff       	call   100481 <debug_panic>

	// Overflow trap
	args.reip = after_overflow;
  101b1c:	c7 45 d4 2b 1b 10 00 	movl   $0x101b2b,-0x2c(%ebp)
	asm volatile("addl %0,%0; into; after_overflow:" : : "r" (0x70000000));
  101b23:	b8 00 00 00 70       	mov    $0x70000000,%eax
  101b28:	01 c0                	add    %eax,%eax
  101b2a:	ce                   	into   

00101b2b <after_overflow>:
	assert(args.trapno == T_OFLOW);
  101b2b:	8b 45 d8             	mov    -0x28(%ebp),%eax
  101b2e:	83 f8 04             	cmp    $0x4,%eax
  101b31:	74 24                	je     101b57 <after_overflow+0x2c>
  101b33:	c7 44 24 0c 19 89 10 	movl   $0x108919,0xc(%esp)
  101b3a:	00 
  101b3b:	c7 44 24 08 96 86 10 	movl   $0x108696,0x8(%esp)
  101b42:	00 
  101b43:	c7 44 24 04 08 01 00 	movl   $0x108,0x4(%esp)
  101b4a:	00 
  101b4b:	c7 04 24 0a 88 10 00 	movl   $0x10880a,(%esp)
  101b52:	e8 2a e9 ff ff       	call   100481 <debug_panic>

	// Bounds trap
	args.reip = after_bound;
  101b57:	c7 45 d4 74 1b 10 00 	movl   $0x101b74,-0x2c(%ebp)
	int bounds[2] = { 1, 3 };
  101b5e:	c7 45 cc 01 00 00 00 	movl   $0x1,-0x34(%ebp)
  101b65:	c7 45 d0 03 00 00 00 	movl   $0x3,-0x30(%ebp)
	asm volatile("boundl %0,%1; after_bound:" : : "r" (0), "m" (bounds[0]));
  101b6c:	b8 00 00 00 00       	mov    $0x0,%eax
  101b71:	62 45 cc             	bound  %eax,-0x34(%ebp)

00101b74 <after_bound>:
	assert(args.trapno == T_BOUND);
  101b74:	8b 45 d8             	mov    -0x28(%ebp),%eax
  101b77:	83 f8 05             	cmp    $0x5,%eax
  101b7a:	74 24                	je     101ba0 <after_bound+0x2c>
  101b7c:	c7 44 24 0c 30 89 10 	movl   $0x108930,0xc(%esp)
  101b83:	00 
  101b84:	c7 44 24 08 96 86 10 	movl   $0x108696,0x8(%esp)
  101b8b:	00 
  101b8c:	c7 44 24 04 0e 01 00 	movl   $0x10e,0x4(%esp)
  101b93:	00 
  101b94:	c7 04 24 0a 88 10 00 	movl   $0x10880a,(%esp)
  101b9b:	e8 e1 e8 ff ff       	call   100481 <debug_panic>

	// Illegal instruction trap
	args.reip = after_illegal;
  101ba0:	c7 45 d4 a9 1b 10 00 	movl   $0x101ba9,-0x2c(%ebp)
	asm volatile("ud2; after_illegal:");	// guaranteed to be undefined
  101ba7:	0f 0b                	ud2    

00101ba9 <after_illegal>:
	assert(args.trapno == T_ILLOP);
  101ba9:	8b 45 d8             	mov    -0x28(%ebp),%eax
  101bac:	83 f8 06             	cmp    $0x6,%eax
  101baf:	74 24                	je     101bd5 <after_illegal+0x2c>
  101bb1:	c7 44 24 0c 47 89 10 	movl   $0x108947,0xc(%esp)
  101bb8:	00 
  101bb9:	c7 44 24 08 96 86 10 	movl   $0x108696,0x8(%esp)
  101bc0:	00 
  101bc1:	c7 44 24 04 13 01 00 	movl   $0x113,0x4(%esp)
  101bc8:	00 
  101bc9:	c7 04 24 0a 88 10 00 	movl   $0x10880a,(%esp)
  101bd0:	e8 ac e8 ff ff       	call   100481 <debug_panic>

	// General protection fault due to invalid segment load
	args.reip = after_gpfault;
  101bd5:	c7 45 d4 e3 1b 10 00 	movl   $0x101be3,-0x2c(%ebp)
	asm volatile("movl %0,%%fs; after_gpfault:" : : "r" (-1));
  101bdc:	b8 ff ff ff ff       	mov    $0xffffffff,%eax
  101be1:	8e e0                	mov    %eax,%fs

00101be3 <after_gpfault>:
	assert(args.trapno == T_GPFLT);
  101be3:	8b 45 d8             	mov    -0x28(%ebp),%eax
  101be6:	83 f8 0d             	cmp    $0xd,%eax
  101be9:	74 24                	je     101c0f <after_gpfault+0x2c>
  101beb:	c7 44 24 0c 5e 89 10 	movl   $0x10895e,0xc(%esp)
  101bf2:	00 
  101bf3:	c7 44 24 08 96 86 10 	movl   $0x108696,0x8(%esp)
  101bfa:	00 
  101bfb:	c7 44 24 04 18 01 00 	movl   $0x118,0x4(%esp)
  101c02:	00 
  101c03:	c7 04 24 0a 88 10 00 	movl   $0x10880a,(%esp)
  101c0a:	e8 72 e8 ff ff       	call   100481 <debug_panic>

static gcc_inline uint16_t
read_cs(void)
{
        uint16_t cs;
        __asm __volatile("movw %%cs,%0" : "=rm" (cs));
  101c0f:	8c 4d e6             	mov    %cs,-0x1a(%ebp)
        return cs;
  101c12:	0f b7 45 e6          	movzwl -0x1a(%ebp),%eax

	// General protection fault due to privilege violation
	if (read_cs() & 3) {
  101c16:	0f b7 c0             	movzwl %ax,%eax
  101c19:	83 e0 03             	and    $0x3,%eax
  101c1c:	85 c0                	test   %eax,%eax
  101c1e:	74 3a                	je     101c5a <after_priv+0x2c>
		args.reip = after_priv;
  101c20:	c7 45 d4 2e 1c 10 00 	movl   $0x101c2e,-0x2c(%ebp)
		asm volatile("lidt %0; after_priv:" : : "m" (idt_pd));
  101c27:	0f 01 1d 04 c0 10 00 	lidtl  0x10c004

00101c2e <after_priv>:
		assert(args.trapno == T_GPFLT);
  101c2e:	8b 45 d8             	mov    -0x28(%ebp),%eax
  101c31:	83 f8 0d             	cmp    $0xd,%eax
  101c34:	74 24                	je     101c5a <after_priv+0x2c>
  101c36:	c7 44 24 0c 5e 89 10 	movl   $0x10895e,0xc(%esp)
  101c3d:	00 
  101c3e:	c7 44 24 08 96 86 10 	movl   $0x108696,0x8(%esp)
  101c45:	00 
  101c46:	c7 44 24 04 1e 01 00 	movl   $0x11e,0x4(%esp)
  101c4d:	00 
  101c4e:	c7 04 24 0a 88 10 00 	movl   $0x10880a,(%esp)
  101c55:	e8 27 e8 ff ff       	call   100481 <debug_panic>
	}

	// Make sure our stack cookie is still with us
	assert(cookie == 0xfeedface);
  101c5a:	8b 45 dc             	mov    -0x24(%ebp),%eax
  101c5d:	3d ce fa ed fe       	cmp    $0xfeedface,%eax
  101c62:	74 24                	je     101c88 <after_priv+0x5a>
  101c64:	c7 44 24 0c ed 88 10 	movl   $0x1088ed,0xc(%esp)
  101c6b:	00 
  101c6c:	c7 44 24 08 96 86 10 	movl   $0x108696,0x8(%esp)
  101c73:	00 
  101c74:	c7 44 24 04 22 01 00 	movl   $0x122,0x4(%esp)
  101c7b:	00 
  101c7c:	c7 04 24 0a 88 10 00 	movl   $0x10880a,(%esp)
  101c83:	e8 f9 e7 ff ff       	call   100481 <debug_panic>
	//cprintf("sfsfsfsfsfsfsfsfsf\n");
	*argsp = NULL;	// recovery mechanism not needed anymore
  101c88:	8b 45 08             	mov    0x8(%ebp),%eax
  101c8b:	c7 00 00 00 00 00    	movl   $0x0,(%eax)
}
  101c91:	83 c4 3c             	add    $0x3c,%esp
  101c94:	5b                   	pop    %ebx
  101c95:	5e                   	pop    %esi
  101c96:	5f                   	pop    %edi
  101c97:	5d                   	pop    %ebp
  101c98:	c3                   	ret    
  101c99:	90                   	nop

00101c9a <vector0>:

/*
 * Lab 1: Your code here for generating entry points for the different traps.
 */

TRAPHANDLER_NOEC(vector0, 0)
  101c9a:	6a 00                	push   $0x0
  101c9c:	6a 00                	push   $0x0
  101c9e:	e9 35 a4 00 00       	jmp    10c0d8 <_alltraps>
  101ca3:	90                   	nop

00101ca4 <vector1>:
TRAPHANDLER_NOEC(vector1, 1)
  101ca4:	6a 00                	push   $0x0
  101ca6:	6a 01                	push   $0x1
  101ca8:	e9 2b a4 00 00       	jmp    10c0d8 <_alltraps>
  101cad:	90                   	nop

00101cae <vector2>:
TRAPHANDLER_NOEC(vector2, 2)
  101cae:	6a 00                	push   $0x0
  101cb0:	6a 02                	push   $0x2
  101cb2:	e9 21 a4 00 00       	jmp    10c0d8 <_alltraps>
  101cb7:	90                   	nop

00101cb8 <vector3>:
TRAPHANDLER_NOEC(vector3, 3)
  101cb8:	6a 00                	push   $0x0
  101cba:	6a 03                	push   $0x3
  101cbc:	e9 17 a4 00 00       	jmp    10c0d8 <_alltraps>
  101cc1:	90                   	nop

00101cc2 <vector4>:
TRAPHANDLER_NOEC(vector4, 4)
  101cc2:	6a 00                	push   $0x0
  101cc4:	6a 04                	push   $0x4
  101cc6:	e9 0d a4 00 00       	jmp    10c0d8 <_alltraps>
  101ccb:	90                   	nop

00101ccc <vector5>:
TRAPHANDLER_NOEC(vector5, 5)
  101ccc:	6a 00                	push   $0x0
  101cce:	6a 05                	push   $0x5
  101cd0:	e9 03 a4 00 00       	jmp    10c0d8 <_alltraps>
  101cd5:	90                   	nop

00101cd6 <vector6>:
TRAPHANDLER_NOEC(vector6, 6)
  101cd6:	6a 00                	push   $0x0
  101cd8:	6a 06                	push   $0x6
  101cda:	e9 f9 a3 00 00       	jmp    10c0d8 <_alltraps>
  101cdf:	90                   	nop

00101ce0 <vector7>:
TRAPHANDLER_NOEC(vector7, 7)
  101ce0:	6a 00                	push   $0x0
  101ce2:	6a 07                	push   $0x7
  101ce4:	e9 ef a3 00 00       	jmp    10c0d8 <_alltraps>
  101ce9:	90                   	nop

00101cea <vector8>:
TRAPHANDLER(vector8, 8)
  101cea:	6a 08                	push   $0x8
  101cec:	e9 e7 a3 00 00       	jmp    10c0d8 <_alltraps>
  101cf1:	90                   	nop

00101cf2 <vector9>:
TRAPHANDLER_NOEC(vector9, 9)
  101cf2:	6a 00                	push   $0x0
  101cf4:	6a 09                	push   $0x9
  101cf6:	e9 dd a3 00 00       	jmp    10c0d8 <_alltraps>
  101cfb:	90                   	nop

00101cfc <vector10>:
TRAPHANDLER(vector10, 10)
  101cfc:	6a 0a                	push   $0xa
  101cfe:	e9 d5 a3 00 00       	jmp    10c0d8 <_alltraps>
  101d03:	90                   	nop

00101d04 <vector11>:
TRAPHANDLER(vector11, 11)
  101d04:	6a 0b                	push   $0xb
  101d06:	e9 cd a3 00 00       	jmp    10c0d8 <_alltraps>
  101d0b:	90                   	nop

00101d0c <vector12>:
TRAPHANDLER(vector12, 12)
  101d0c:	6a 0c                	push   $0xc
  101d0e:	e9 c5 a3 00 00       	jmp    10c0d8 <_alltraps>
  101d13:	90                   	nop

00101d14 <vector13>:
TRAPHANDLER(vector13, 13)
  101d14:	6a 0d                	push   $0xd
  101d16:	e9 bd a3 00 00       	jmp    10c0d8 <_alltraps>
  101d1b:	90                   	nop

00101d1c <vector14>:
TRAPHANDLER(vector14, 14)
  101d1c:	6a 0e                	push   $0xe
  101d1e:	e9 b5 a3 00 00       	jmp    10c0d8 <_alltraps>
  101d23:	90                   	nop

00101d24 <vector15>:
TRAPHANDLER_NOEC(vector15, 15)
  101d24:	6a 00                	push   $0x0
  101d26:	6a 0f                	push   $0xf
  101d28:	e9 ab a3 00 00       	jmp    10c0d8 <_alltraps>
  101d2d:	90                   	nop

00101d2e <vector16>:
TRAPHANDLER_NOEC(vector16, 16)
  101d2e:	6a 00                	push   $0x0
  101d30:	6a 10                	push   $0x10
  101d32:	e9 a1 a3 00 00       	jmp    10c0d8 <_alltraps>
  101d37:	90                   	nop

00101d38 <vector17>:
TRAPHANDLER(vector17, 17)
  101d38:	6a 11                	push   $0x11
  101d3a:	e9 99 a3 00 00       	jmp    10c0d8 <_alltraps>
  101d3f:	90                   	nop

00101d40 <vector18>:
TRAPHANDLER_NOEC(vector18, 18)
  101d40:	6a 00                	push   $0x0
  101d42:	6a 12                	push   $0x12
  101d44:	e9 8f a3 00 00       	jmp    10c0d8 <_alltraps>
  101d49:	90                   	nop

00101d4a <vector19>:
TRAPHANDLER_NOEC(vector19, 19)
  101d4a:	6a 00                	push   $0x0
  101d4c:	6a 13                	push   $0x13
  101d4e:	e9 85 a3 00 00       	jmp    10c0d8 <_alltraps>
  101d53:	90                   	nop

00101d54 <vector20>:
TRAPHANDLER_NOEC(vector20, 20)
  101d54:	6a 00                	push   $0x0
  101d56:	6a 14                	push   $0x14
  101d58:	e9 7b a3 00 00       	jmp    10c0d8 <_alltraps>
  101d5d:	90                   	nop

00101d5e <vector21>:
TRAPHANDLER_NOEC(vector21, 21)
  101d5e:	6a 00                	push   $0x0
  101d60:	6a 15                	push   $0x15
  101d62:	e9 71 a3 00 00       	jmp    10c0d8 <_alltraps>
  101d67:	90                   	nop

00101d68 <vector22>:
TRAPHANDLER_NOEC(vector22, 22)
  101d68:	6a 00                	push   $0x0
  101d6a:	6a 16                	push   $0x16
  101d6c:	e9 67 a3 00 00       	jmp    10c0d8 <_alltraps>
  101d71:	90                   	nop

00101d72 <vector23>:
TRAPHANDLER_NOEC(vector23, 23)
  101d72:	6a 00                	push   $0x0
  101d74:	6a 17                	push   $0x17
  101d76:	e9 5d a3 00 00       	jmp    10c0d8 <_alltraps>
  101d7b:	90                   	nop

00101d7c <vector24>:
TRAPHANDLER_NOEC(vector24, 24)
  101d7c:	6a 00                	push   $0x0
  101d7e:	6a 18                	push   $0x18
  101d80:	e9 53 a3 00 00       	jmp    10c0d8 <_alltraps>
  101d85:	90                   	nop

00101d86 <vector25>:
TRAPHANDLER_NOEC(vector25, 25)
  101d86:	6a 00                	push   $0x0
  101d88:	6a 19                	push   $0x19
  101d8a:	e9 49 a3 00 00       	jmp    10c0d8 <_alltraps>
  101d8f:	90                   	nop

00101d90 <vector26>:
TRAPHANDLER_NOEC(vector26, 26)
  101d90:	6a 00                	push   $0x0
  101d92:	6a 1a                	push   $0x1a
  101d94:	e9 3f a3 00 00       	jmp    10c0d8 <_alltraps>
  101d99:	90                   	nop

00101d9a <vector27>:
TRAPHANDLER_NOEC(vector27, 27)
  101d9a:	6a 00                	push   $0x0
  101d9c:	6a 1b                	push   $0x1b
  101d9e:	e9 35 a3 00 00       	jmp    10c0d8 <_alltraps>
  101da3:	90                   	nop

00101da4 <vector28>:
TRAPHANDLER_NOEC(vector28, 28)
  101da4:	6a 00                	push   $0x0
  101da6:	6a 1c                	push   $0x1c
  101da8:	e9 2b a3 00 00       	jmp    10c0d8 <_alltraps>
  101dad:	90                   	nop

00101dae <vector29>:
TRAPHANDLER_NOEC(vector29, 29)
  101dae:	6a 00                	push   $0x0
  101db0:	6a 1d                	push   $0x1d
  101db2:	e9 21 a3 00 00       	jmp    10c0d8 <_alltraps>
  101db7:	90                   	nop

00101db8 <vector30>:
TRAPHANDLER_NOEC(vector30, 30)
  101db8:	6a 00                	push   $0x0
  101dba:	6a 1e                	push   $0x1e
  101dbc:	e9 17 a3 00 00       	jmp    10c0d8 <_alltraps>
  101dc1:	90                   	nop

00101dc2 <vector31>:
TRAPHANDLER_NOEC(vector31, 31)
  101dc2:	6a 00                	push   $0x0
  101dc4:	6a 1f                	push   $0x1f
  101dc6:	e9 0d a3 00 00       	jmp    10c0d8 <_alltraps>
  101dcb:	90                   	nop

00101dcc <vector32>:
TRAPHANDLER_NOEC(vector32, 32)
  101dcc:	6a 00                	push   $0x0
  101dce:	6a 20                	push   $0x20
  101dd0:	e9 03 a3 00 00       	jmp    10c0d8 <_alltraps>
  101dd5:	90                   	nop

00101dd6 <vector33>:
TRAPHANDLER_NOEC(vector33, 33)
  101dd6:	6a 00                	push   $0x0
  101dd8:	6a 21                	push   $0x21
  101dda:	e9 f9 a2 00 00       	jmp    10c0d8 <_alltraps>
  101ddf:	90                   	nop

00101de0 <vector34>:
TRAPHANDLER_NOEC(vector34, 34)
  101de0:	6a 00                	push   $0x0
  101de2:	6a 22                	push   $0x22
  101de4:	e9 ef a2 00 00       	jmp    10c0d8 <_alltraps>
  101de9:	90                   	nop

00101dea <vector35>:
TRAPHANDLER_NOEC(vector35, 35)
  101dea:	6a 00                	push   $0x0
  101dec:	6a 23                	push   $0x23
  101dee:	e9 e5 a2 00 00       	jmp    10c0d8 <_alltraps>
  101df3:	90                   	nop

00101df4 <vector36>:
TRAPHANDLER_NOEC(vector36, 36)
  101df4:	6a 00                	push   $0x0
  101df6:	6a 24                	push   $0x24
  101df8:	e9 db a2 00 00       	jmp    10c0d8 <_alltraps>
  101dfd:	90                   	nop

00101dfe <vector37>:
TRAPHANDLER_NOEC(vector37, 37)
  101dfe:	6a 00                	push   $0x0
  101e00:	6a 25                	push   $0x25
  101e02:	e9 d1 a2 00 00       	jmp    10c0d8 <_alltraps>
  101e07:	90                   	nop

00101e08 <vector38>:
TRAPHANDLER_NOEC(vector38, 38)
  101e08:	6a 00                	push   $0x0
  101e0a:	6a 26                	push   $0x26
  101e0c:	e9 c7 a2 00 00       	jmp    10c0d8 <_alltraps>
  101e11:	90                   	nop

00101e12 <vector39>:
TRAPHANDLER_NOEC(vector39, 39)
  101e12:	6a 00                	push   $0x0
  101e14:	6a 27                	push   $0x27
  101e16:	e9 bd a2 00 00       	jmp    10c0d8 <_alltraps>
  101e1b:	90                   	nop

00101e1c <vector40>:
TRAPHANDLER_NOEC(vector40, 40)
  101e1c:	6a 00                	push   $0x0
  101e1e:	6a 28                	push   $0x28
  101e20:	e9 b3 a2 00 00       	jmp    10c0d8 <_alltraps>
  101e25:	90                   	nop

00101e26 <vector41>:
TRAPHANDLER_NOEC(vector41, 41)
  101e26:	6a 00                	push   $0x0
  101e28:	6a 29                	push   $0x29
  101e2a:	e9 a9 a2 00 00       	jmp    10c0d8 <_alltraps>
  101e2f:	90                   	nop

00101e30 <vector42>:
TRAPHANDLER_NOEC(vector42, 42)
  101e30:	6a 00                	push   $0x0
  101e32:	6a 2a                	push   $0x2a
  101e34:	e9 9f a2 00 00       	jmp    10c0d8 <_alltraps>
  101e39:	90                   	nop

00101e3a <vector43>:
TRAPHANDLER_NOEC(vector43, 43)
  101e3a:	6a 00                	push   $0x0
  101e3c:	6a 2b                	push   $0x2b
  101e3e:	e9 95 a2 00 00       	jmp    10c0d8 <_alltraps>
  101e43:	90                   	nop

00101e44 <vector44>:
TRAPHANDLER_NOEC(vector44, 44)
  101e44:	6a 00                	push   $0x0
  101e46:	6a 2c                	push   $0x2c
  101e48:	e9 8b a2 00 00       	jmp    10c0d8 <_alltraps>
  101e4d:	90                   	nop

00101e4e <vector45>:
TRAPHANDLER_NOEC(vector45, 45)
  101e4e:	6a 00                	push   $0x0
  101e50:	6a 2d                	push   $0x2d
  101e52:	e9 81 a2 00 00       	jmp    10c0d8 <_alltraps>
  101e57:	90                   	nop

00101e58 <vector46>:
TRAPHANDLER_NOEC(vector46, 46)
  101e58:	6a 00                	push   $0x0
  101e5a:	6a 2e                	push   $0x2e
  101e5c:	e9 77 a2 00 00       	jmp    10c0d8 <_alltraps>
  101e61:	90                   	nop

00101e62 <vector47>:
TRAPHANDLER_NOEC(vector47, 47)
  101e62:	6a 00                	push   $0x0
  101e64:	6a 2f                	push   $0x2f
  101e66:	e9 6d a2 00 00       	jmp    10c0d8 <_alltraps>
  101e6b:	90                   	nop

00101e6c <vector48>:
TRAPHANDLER_NOEC(vector48, 48)
  101e6c:	6a 00                	push   $0x0
  101e6e:	6a 30                	push   $0x30
  101e70:	e9 63 a2 00 00       	jmp    10c0d8 <_alltraps>
  101e75:	90                   	nop

00101e76 <vector49>:
TRAPHANDLER_NOEC(vector49, 49)
  101e76:	6a 00                	push   $0x0
  101e78:	6a 31                	push   $0x31
  101e7a:	e9 59 a2 00 00       	jmp    10c0d8 <_alltraps>

00101e7f <cpu_cur>:
#define cpu_disabled(c)		0

// Find the CPU struct representing the current CPU.
// It always resides at the bottom of the page containing the CPU's stack.
static inline cpu *
cpu_cur() {
  101e7f:	55                   	push   %ebp
  101e80:	89 e5                	mov    %esp,%ebp
  101e82:	83 ec 28             	sub    $0x28,%esp

static gcc_inline uint32_t
read_esp(void)
{
        uint32_t esp;
        __asm __volatile("movl %%esp,%0" : "=rm" (esp));
  101e85:	89 65 f4             	mov    %esp,-0xc(%ebp)
        return esp;
  101e88:	8b 45 f4             	mov    -0xc(%ebp),%eax
	cpu *c = (cpu*)ROUNDDOWN(read_esp(), PAGESIZE);
  101e8b:	89 45 f0             	mov    %eax,-0x10(%ebp)
  101e8e:	8b 45 f0             	mov    -0x10(%ebp),%eax
  101e91:	25 00 f0 ff ff       	and    $0xfffff000,%eax
  101e96:	89 45 ec             	mov    %eax,-0x14(%ebp)
	assert(c->magic == CPU_MAGIC);
  101e99:	8b 45 ec             	mov    -0x14(%ebp),%eax
  101e9c:	8b 80 b8 00 00 00    	mov    0xb8(%eax),%eax
  101ea2:	3d 32 54 76 98       	cmp    $0x98765432,%eax
  101ea7:	74 24                	je     101ecd <cpu_cur+0x4e>
  101ea9:	c7 44 24 0c 10 8b 10 	movl   $0x108b10,0xc(%esp)
  101eb0:	00 
  101eb1:	c7 44 24 08 26 8b 10 	movl   $0x108b26,0x8(%esp)
  101eb8:	00 
  101eb9:	c7 44 24 04 5c 00 00 	movl   $0x5c,0x4(%esp)
  101ec0:	00 
  101ec1:	c7 04 24 3b 8b 10 00 	movl   $0x108b3b,(%esp)
  101ec8:	e8 b4 e5 ff ff       	call   100481 <debug_panic>
	return c;
  101ecd:	8b 45 ec             	mov    -0x14(%ebp),%eax
}
  101ed0:	c9                   	leave  
  101ed1:	c3                   	ret    

00101ed2 <cpu_onboot>:

// Returns true if we're running on the bootstrap CPU.
static inline int
cpu_onboot() {
  101ed2:	55                   	push   %ebp
  101ed3:	89 e5                	mov    %esp,%ebp
  101ed5:	83 ec 08             	sub    $0x8,%esp
	return cpu_cur() == &cpu_boot;
  101ed8:	e8 a2 ff ff ff       	call   101e7f <cpu_cur>
  101edd:	3d 00 b0 10 00       	cmp    $0x10b000,%eax
  101ee2:	0f 94 c0             	sete   %al
  101ee5:	0f b6 c0             	movzbl %al,%eax
}
  101ee8:	c9                   	leave  
  101ee9:	c3                   	ret    

00101eea <sum>:
volatile struct ioapic *ioapic;


static uint8_t
sum(uint8_t * addr, int len)
{
  101eea:	55                   	push   %ebp
  101eeb:	89 e5                	mov    %esp,%ebp
  101eed:	83 ec 10             	sub    $0x10,%esp
	int i, sum;

	sum = 0;
  101ef0:	c7 45 fc 00 00 00 00 	movl   $0x0,-0x4(%ebp)
	for (i = 0; i < len; i++)
  101ef7:	c7 45 f8 00 00 00 00 	movl   $0x0,-0x8(%ebp)
  101efe:	eb 13                	jmp    101f13 <sum+0x29>
		sum += addr[i];
  101f00:	8b 45 f8             	mov    -0x8(%ebp),%eax
  101f03:	03 45 08             	add    0x8(%ebp),%eax
  101f06:	0f b6 00             	movzbl (%eax),%eax
  101f09:	0f b6 c0             	movzbl %al,%eax
  101f0c:	01 45 fc             	add    %eax,-0x4(%ebp)
sum(uint8_t * addr, int len)
{
	int i, sum;

	sum = 0;
	for (i = 0; i < len; i++)
  101f0f:	83 45 f8 01          	addl   $0x1,-0x8(%ebp)
  101f13:	8b 45 f8             	mov    -0x8(%ebp),%eax
  101f16:	3b 45 0c             	cmp    0xc(%ebp),%eax
  101f19:	7c e5                	jl     101f00 <sum+0x16>
		sum += addr[i];
	return sum;
  101f1b:	8b 45 fc             	mov    -0x4(%ebp),%eax
}
  101f1e:	c9                   	leave  
  101f1f:	c3                   	ret    

00101f20 <mpsearch1>:

//Look for an MP structure in the len bytes at addr.
static struct mp *
mpsearch1(uint8_t * addr, int len)
{
  101f20:	55                   	push   %ebp
  101f21:	89 e5                	mov    %esp,%ebp
  101f23:	83 ec 28             	sub    $0x28,%esp
	uint8_t *e, *p;

	e = addr + len;
  101f26:	8b 45 0c             	mov    0xc(%ebp),%eax
  101f29:	03 45 08             	add    0x8(%ebp),%eax
  101f2c:	89 45 f0             	mov    %eax,-0x10(%ebp)
	for (p = addr; p < e; p += sizeof(struct mp))
  101f2f:	8b 45 08             	mov    0x8(%ebp),%eax
  101f32:	89 45 f4             	mov    %eax,-0xc(%ebp)
  101f35:	eb 3f                	jmp    101f76 <mpsearch1+0x56>
		if (memcmp(p, "_MP_", 4) == 0 && sum(p, sizeof(struct mp)) == 0)
  101f37:	c7 44 24 08 04 00 00 	movl   $0x4,0x8(%esp)
  101f3e:	00 
  101f3f:	c7 44 24 04 48 8b 10 	movl   $0x108b48,0x4(%esp)
  101f46:	00 
  101f47:	8b 45 f4             	mov    -0xc(%ebp),%eax
  101f4a:	89 04 24             	mov    %eax,(%esp)
  101f4d:	e8 62 5f 00 00       	call   107eb4 <memcmp>
  101f52:	85 c0                	test   %eax,%eax
  101f54:	75 1c                	jne    101f72 <mpsearch1+0x52>
  101f56:	c7 44 24 04 10 00 00 	movl   $0x10,0x4(%esp)
  101f5d:	00 
  101f5e:	8b 45 f4             	mov    -0xc(%ebp),%eax
  101f61:	89 04 24             	mov    %eax,(%esp)
  101f64:	e8 81 ff ff ff       	call   101eea <sum>
  101f69:	84 c0                	test   %al,%al
  101f6b:	75 05                	jne    101f72 <mpsearch1+0x52>
			return (struct mp *) p;
  101f6d:	8b 45 f4             	mov    -0xc(%ebp),%eax
  101f70:	eb 11                	jmp    101f83 <mpsearch1+0x63>
mpsearch1(uint8_t * addr, int len)
{
	uint8_t *e, *p;

	e = addr + len;
	for (p = addr; p < e; p += sizeof(struct mp))
  101f72:	83 45 f4 10          	addl   $0x10,-0xc(%ebp)
  101f76:	8b 45 f4             	mov    -0xc(%ebp),%eax
  101f79:	3b 45 f0             	cmp    -0x10(%ebp),%eax
  101f7c:	72 b9                	jb     101f37 <mpsearch1+0x17>
		if (memcmp(p, "_MP_", 4) == 0 && sum(p, sizeof(struct mp)) == 0)
			return (struct mp *) p;
	return 0;
  101f7e:	b8 00 00 00 00       	mov    $0x0,%eax
}
  101f83:	c9                   	leave  
  101f84:	c3                   	ret    

00101f85 <mpsearch>:
// 1) in the first KB of the EBDA;
// 2) in the last KB of system base memory;
// 3) in the BIOS ROM between 0xE0000 and 0xFFFFF.
static struct mp *
mpsearch(void)
{
  101f85:	55                   	push   %ebp
  101f86:	89 e5                	mov    %esp,%ebp
  101f88:	83 ec 28             	sub    $0x28,%esp
	uint8_t          *bda;
	uint32_t            p;
	struct mp      *mp;

	bda = (uint8_t *) 0x400;
  101f8b:	c7 45 ec 00 04 00 00 	movl   $0x400,-0x14(%ebp)
	if ((p = ((bda[0x0F] << 8) | bda[0x0E]) << 4)) {
  101f92:	8b 45 ec             	mov    -0x14(%ebp),%eax
  101f95:	83 c0 0f             	add    $0xf,%eax
  101f98:	0f b6 00             	movzbl (%eax),%eax
  101f9b:	0f b6 c0             	movzbl %al,%eax
  101f9e:	89 c2                	mov    %eax,%edx
  101fa0:	c1 e2 08             	shl    $0x8,%edx
  101fa3:	8b 45 ec             	mov    -0x14(%ebp),%eax
  101fa6:	83 c0 0e             	add    $0xe,%eax
  101fa9:	0f b6 00             	movzbl (%eax),%eax
  101fac:	0f b6 c0             	movzbl %al,%eax
  101faf:	09 d0                	or     %edx,%eax
  101fb1:	c1 e0 04             	shl    $0x4,%eax
  101fb4:	89 45 f0             	mov    %eax,-0x10(%ebp)
  101fb7:	83 7d f0 00          	cmpl   $0x0,-0x10(%ebp)
  101fbb:	74 21                	je     101fde <mpsearch+0x59>
		if ((mp = mpsearch1((uint8_t *) p, 1024)))
  101fbd:	8b 45 f0             	mov    -0x10(%ebp),%eax
  101fc0:	c7 44 24 04 00 04 00 	movl   $0x400,0x4(%esp)
  101fc7:	00 
  101fc8:	89 04 24             	mov    %eax,(%esp)
  101fcb:	e8 50 ff ff ff       	call   101f20 <mpsearch1>
  101fd0:	89 45 f4             	mov    %eax,-0xc(%ebp)
  101fd3:	83 7d f4 00          	cmpl   $0x0,-0xc(%ebp)
  101fd7:	74 50                	je     102029 <mpsearch+0xa4>
			return mp;
  101fd9:	8b 45 f4             	mov    -0xc(%ebp),%eax
  101fdc:	eb 5f                	jmp    10203d <mpsearch+0xb8>
	} else {
		p = ((bda[0x14] << 8) | bda[0x13]) * 1024;
  101fde:	8b 45 ec             	mov    -0x14(%ebp),%eax
  101fe1:	83 c0 14             	add    $0x14,%eax
  101fe4:	0f b6 00             	movzbl (%eax),%eax
  101fe7:	0f b6 c0             	movzbl %al,%eax
  101fea:	89 c2                	mov    %eax,%edx
  101fec:	c1 e2 08             	shl    $0x8,%edx
  101fef:	8b 45 ec             	mov    -0x14(%ebp),%eax
  101ff2:	83 c0 13             	add    $0x13,%eax
  101ff5:	0f b6 00             	movzbl (%eax),%eax
  101ff8:	0f b6 c0             	movzbl %al,%eax
  101ffb:	09 d0                	or     %edx,%eax
  101ffd:	c1 e0 0a             	shl    $0xa,%eax
  102000:	89 45 f0             	mov    %eax,-0x10(%ebp)
		if ((mp = mpsearch1((uint8_t *) p - 1024, 1024)))
  102003:	8b 45 f0             	mov    -0x10(%ebp),%eax
  102006:	2d 00 04 00 00       	sub    $0x400,%eax
  10200b:	c7 44 24 04 00 04 00 	movl   $0x400,0x4(%esp)
  102012:	00 
  102013:	89 04 24             	mov    %eax,(%esp)
  102016:	e8 05 ff ff ff       	call   101f20 <mpsearch1>
  10201b:	89 45 f4             	mov    %eax,-0xc(%ebp)
  10201e:	83 7d f4 00          	cmpl   $0x0,-0xc(%ebp)
  102022:	74 05                	je     102029 <mpsearch+0xa4>
			return mp;
  102024:	8b 45 f4             	mov    -0xc(%ebp),%eax
  102027:	eb 14                	jmp    10203d <mpsearch+0xb8>
	}
	return mpsearch1((uint8_t *) 0xF0000, 0x10000);
  102029:	c7 44 24 04 00 00 01 	movl   $0x10000,0x4(%esp)
  102030:	00 
  102031:	c7 04 24 00 00 0f 00 	movl   $0xf0000,(%esp)
  102038:	e8 e3 fe ff ff       	call   101f20 <mpsearch1>
}
  10203d:	c9                   	leave  
  10203e:	c3                   	ret    

0010203f <mpconfig>:
// don 't accept the default configurations (physaddr == 0).
// Check for correct signature, calculate the checksum and,
// if correct, check the version.
// To do: check extended table checksum.
static struct mpconf *
mpconfig(struct mp **pmp) {
  10203f:	55                   	push   %ebp
  102040:	89 e5                	mov    %esp,%ebp
  102042:	83 ec 28             	sub    $0x28,%esp
	struct mpconf  *conf;
	struct mp      *mp;

	if ((mp = mpsearch()) == 0 || mp->physaddr == 0)
  102045:	e8 3b ff ff ff       	call   101f85 <mpsearch>
  10204a:	89 45 f4             	mov    %eax,-0xc(%ebp)
  10204d:	83 7d f4 00          	cmpl   $0x0,-0xc(%ebp)
  102051:	74 0a                	je     10205d <mpconfig+0x1e>
  102053:	8b 45 f4             	mov    -0xc(%ebp),%eax
  102056:	8b 40 04             	mov    0x4(%eax),%eax
  102059:	85 c0                	test   %eax,%eax
  10205b:	75 07                	jne    102064 <mpconfig+0x25>
		return 0;
  10205d:	b8 00 00 00 00       	mov    $0x0,%eax
  102062:	eb 7b                	jmp    1020df <mpconfig+0xa0>
	conf = (struct mpconf *) mp->physaddr;
  102064:	8b 45 f4             	mov    -0xc(%ebp),%eax
  102067:	8b 40 04             	mov    0x4(%eax),%eax
  10206a:	89 45 f0             	mov    %eax,-0x10(%ebp)
	if (memcmp(conf, "PCMP", 4) != 0)
  10206d:	c7 44 24 08 04 00 00 	movl   $0x4,0x8(%esp)
  102074:	00 
  102075:	c7 44 24 04 4d 8b 10 	movl   $0x108b4d,0x4(%esp)
  10207c:	00 
  10207d:	8b 45 f0             	mov    -0x10(%ebp),%eax
  102080:	89 04 24             	mov    %eax,(%esp)
  102083:	e8 2c 5e 00 00       	call   107eb4 <memcmp>
  102088:	85 c0                	test   %eax,%eax
  10208a:	74 07                	je     102093 <mpconfig+0x54>
		return 0;
  10208c:	b8 00 00 00 00       	mov    $0x0,%eax
  102091:	eb 4c                	jmp    1020df <mpconfig+0xa0>
	if (conf->version != 1 && conf->version != 4)
  102093:	8b 45 f0             	mov    -0x10(%ebp),%eax
  102096:	0f b6 40 06          	movzbl 0x6(%eax),%eax
  10209a:	3c 01                	cmp    $0x1,%al
  10209c:	74 12                	je     1020b0 <mpconfig+0x71>
  10209e:	8b 45 f0             	mov    -0x10(%ebp),%eax
  1020a1:	0f b6 40 06          	movzbl 0x6(%eax),%eax
  1020a5:	3c 04                	cmp    $0x4,%al
  1020a7:	74 07                	je     1020b0 <mpconfig+0x71>
		return 0;
  1020a9:	b8 00 00 00 00       	mov    $0x0,%eax
  1020ae:	eb 2f                	jmp    1020df <mpconfig+0xa0>
	if (sum((uint8_t *) conf, conf->length) != 0)
  1020b0:	8b 45 f0             	mov    -0x10(%ebp),%eax
  1020b3:	0f b7 40 04          	movzwl 0x4(%eax),%eax
  1020b7:	0f b7 d0             	movzwl %ax,%edx
  1020ba:	8b 45 f0             	mov    -0x10(%ebp),%eax
  1020bd:	89 54 24 04          	mov    %edx,0x4(%esp)
  1020c1:	89 04 24             	mov    %eax,(%esp)
  1020c4:	e8 21 fe ff ff       	call   101eea <sum>
  1020c9:	84 c0                	test   %al,%al
  1020cb:	74 07                	je     1020d4 <mpconfig+0x95>
		return 0;
  1020cd:	b8 00 00 00 00       	mov    $0x0,%eax
  1020d2:	eb 0b                	jmp    1020df <mpconfig+0xa0>
       *pmp = mp;
  1020d4:	8b 45 08             	mov    0x8(%ebp),%eax
  1020d7:	8b 55 f4             	mov    -0xc(%ebp),%edx
  1020da:	89 10                	mov    %edx,(%eax)
	return conf;
  1020dc:	8b 45 f0             	mov    -0x10(%ebp),%eax
}
  1020df:	c9                   	leave  
  1020e0:	c3                   	ret    

001020e1 <mp_init>:

void
mp_init(void)
{
  1020e1:	55                   	push   %ebp
  1020e2:	89 e5                	mov    %esp,%ebp
  1020e4:	83 ec 48             	sub    $0x48,%esp
	struct mp      *mp;
	struct mpconf  *conf;
	struct mpproc  *proc;
	struct mpioapic *mpio;

	if (!cpu_onboot())	// only do once, on the boot CPU
  1020e7:	e8 e6 fd ff ff       	call   101ed2 <cpu_onboot>
  1020ec:	85 c0                	test   %eax,%eax
  1020ee:	0f 84 72 01 00 00    	je     102266 <mp_init+0x185>
		return;

	if ((conf = mpconfig(&mp)) == 0)
  1020f4:	8d 45 c8             	lea    -0x38(%ebp),%eax
  1020f7:	89 04 24             	mov    %eax,(%esp)
  1020fa:	e8 40 ff ff ff       	call   10203f <mpconfig>
  1020ff:	89 45 d4             	mov    %eax,-0x2c(%ebp)
  102102:	83 7d d4 00          	cmpl   $0x0,-0x2c(%ebp)
  102106:	0f 84 5d 01 00 00    	je     102269 <mp_init+0x188>
		return; // Not a multiprocessor machine - just use boot CPU.

	ismp = 1;
  10210c:	c7 05 64 ed 31 00 01 	movl   $0x1,0x31ed64
  102113:	00 00 00 
	lapic = (uint32_t *) conf->lapicaddr;
  102116:	8b 45 d4             	mov    -0x2c(%ebp),%eax
  102119:	8b 40 24             	mov    0x24(%eax),%eax
  10211c:	a3 04 20 32 00       	mov    %eax,0x322004
	for (p = (uint8_t *) (conf + 1), e = (uint8_t *) conf + conf->length;
  102121:	8b 45 d4             	mov    -0x2c(%ebp),%eax
  102124:	83 c0 2c             	add    $0x2c,%eax
  102127:	89 45 cc             	mov    %eax,-0x34(%ebp)
  10212a:	8b 55 d4             	mov    -0x2c(%ebp),%edx
  10212d:	8b 45 d4             	mov    -0x2c(%ebp),%eax
  102130:	0f b7 40 04          	movzwl 0x4(%eax),%eax
  102134:	0f b7 c0             	movzwl %ax,%eax
  102137:	8d 04 02             	lea    (%edx,%eax,1),%eax
  10213a:	89 45 d0             	mov    %eax,-0x30(%ebp)
  10213d:	e9 cc 00 00 00       	jmp    10220e <mp_init+0x12d>
			p < e;) {
		switch (*p) {
  102142:	8b 45 cc             	mov    -0x34(%ebp),%eax
  102145:	0f b6 00             	movzbl (%eax),%eax
  102148:	0f b6 c0             	movzbl %al,%eax
  10214b:	83 f8 04             	cmp    $0x4,%eax
  10214e:	0f 87 90 00 00 00    	ja     1021e4 <mp_init+0x103>
  102154:	8b 04 85 80 8b 10 00 	mov    0x108b80(,%eax,4),%eax
  10215b:	ff e0                	jmp    *%eax
		case MPPROC:
			proc = (struct mpproc *) p;
  10215d:	8b 45 cc             	mov    -0x34(%ebp),%eax
  102160:	89 45 d8             	mov    %eax,-0x28(%ebp)
			p += sizeof(struct mpproc);
  102163:	83 45 cc 14          	addl   $0x14,-0x34(%ebp)
			if (!(proc->flags & MPENAB))
  102167:	8b 45 d8             	mov    -0x28(%ebp),%eax
  10216a:	0f b6 40 03          	movzbl 0x3(%eax),%eax
  10216e:	0f b6 c0             	movzbl %al,%eax
  102171:	83 e0 01             	and    $0x1,%eax
  102174:	85 c0                	test   %eax,%eax
  102176:	0f 84 91 00 00 00    	je     10220d <mp_init+0x12c>
				continue;	// processor disabled

			// Get a cpu struct and kernel stack for this CPU.
			cpu *c = (proc->flags & MPBOOT)
  10217c:	8b 45 d8             	mov    -0x28(%ebp),%eax
  10217f:	0f b6 40 03          	movzbl 0x3(%eax),%eax
  102183:	0f b6 c0             	movzbl %al,%eax
  102186:	83 e0 02             	and    $0x2,%eax
					? &cpu_boot : cpu_alloc();
  102189:	85 c0                	test   %eax,%eax
  10218b:	75 07                	jne    102194 <mp_init+0xb3>
  10218d:	e8 93 f0 ff ff       	call   101225 <cpu_alloc>
  102192:	eb 05                	jmp    102199 <mp_init+0xb8>
  102194:	b8 00 b0 10 00       	mov    $0x10b000,%eax
  102199:	89 45 e0             	mov    %eax,-0x20(%ebp)
			c->id = proc->apicid;
  10219c:	8b 45 d8             	mov    -0x28(%ebp),%eax
  10219f:	0f b6 50 01          	movzbl 0x1(%eax),%edx
  1021a3:	8b 45 e0             	mov    -0x20(%ebp),%eax
  1021a6:	88 90 ac 00 00 00    	mov    %dl,0xac(%eax)
			ncpu++;
  1021ac:	a1 68 ed 31 00       	mov    0x31ed68,%eax
  1021b1:	83 c0 01             	add    $0x1,%eax
  1021b4:	a3 68 ed 31 00       	mov    %eax,0x31ed68
			continue;
  1021b9:	eb 53                	jmp    10220e <mp_init+0x12d>
		case MPIOAPIC:
			mpio = (struct mpioapic *) p;
  1021bb:	8b 45 cc             	mov    -0x34(%ebp),%eax
  1021be:	89 45 dc             	mov    %eax,-0x24(%ebp)
			p += sizeof(struct mpioapic);
  1021c1:	83 45 cc 08          	addl   $0x8,-0x34(%ebp)
			ioapicid = mpio->apicno;
  1021c5:	8b 45 dc             	mov    -0x24(%ebp),%eax
  1021c8:	0f b6 40 01          	movzbl 0x1(%eax),%eax
  1021cc:	a2 5c ed 31 00       	mov    %al,0x31ed5c
			ioapic = (struct ioapic *) mpio->addr;
  1021d1:	8b 45 dc             	mov    -0x24(%ebp),%eax
  1021d4:	8b 40 04             	mov    0x4(%eax),%eax
  1021d7:	a3 60 ed 31 00       	mov    %eax,0x31ed60
			continue;
  1021dc:	eb 30                	jmp    10220e <mp_init+0x12d>
		case MPBUS:
		case MPIOINTR:
		case MPLINTR:
			p += 8;
  1021de:	83 45 cc 08          	addl   $0x8,-0x34(%ebp)
			continue;
  1021e2:	eb 2a                	jmp    10220e <mp_init+0x12d>
		default:
			panic("mpinit: unknown config type %x\n", *p);
  1021e4:	8b 45 cc             	mov    -0x34(%ebp),%eax
  1021e7:	0f b6 00             	movzbl (%eax),%eax
  1021ea:	0f b6 c0             	movzbl %al,%eax
  1021ed:	89 44 24 0c          	mov    %eax,0xc(%esp)
  1021f1:	c7 44 24 08 54 8b 10 	movl   $0x108b54,0x8(%esp)
  1021f8:	00 
  1021f9:	c7 44 24 04 92 00 00 	movl   $0x92,0x4(%esp)
  102200:	00 
  102201:	c7 04 24 74 8b 10 00 	movl   $0x108b74,(%esp)
  102208:	e8 74 e2 ff ff       	call   100481 <debug_panic>
		switch (*p) {
		case MPPROC:
			proc = (struct mpproc *) p;
			p += sizeof(struct mpproc);
			if (!(proc->flags & MPENAB))
				continue;	// processor disabled
  10220d:	90                   	nop
	if ((conf = mpconfig(&mp)) == 0)
		return; // Not a multiprocessor machine - just use boot CPU.

	ismp = 1;
	lapic = (uint32_t *) conf->lapicaddr;
	for (p = (uint8_t *) (conf + 1), e = (uint8_t *) conf + conf->length;
  10220e:	8b 45 cc             	mov    -0x34(%ebp),%eax
  102211:	3b 45 d0             	cmp    -0x30(%ebp),%eax
  102214:	0f 82 28 ff ff ff    	jb     102142 <mp_init+0x61>
			continue;
		default:
			panic("mpinit: unknown config type %x\n", *p);
		}
	}
	if (mp->imcrp) {
  10221a:	8b 45 c8             	mov    -0x38(%ebp),%eax
  10221d:	0f b6 40 0c          	movzbl 0xc(%eax),%eax
  102221:	84 c0                	test   %al,%al
  102223:	74 45                	je     10226a <mp_init+0x189>
  102225:	c7 45 e8 22 00 00 00 	movl   $0x22,-0x18(%ebp)
  10222c:	c6 45 e7 70          	movb   $0x70,-0x19(%ebp)
}

static gcc_inline void
outb(int port, uint8_t data)
{
	__asm __volatile("outb %0,%w1" : : "a" (data), "d" (port));
  102230:	0f b6 45 e7          	movzbl -0x19(%ebp),%eax
  102234:	8b 55 e8             	mov    -0x18(%ebp),%edx
  102237:	ee                   	out    %al,(%dx)
  102238:	c7 45 ec 23 00 00 00 	movl   $0x23,-0x14(%ebp)

static gcc_inline uint8_t
inb(int port)
{
	uint8_t data;
	__asm __volatile("inb %w1,%0" : "=a" (data) : "d" (port));
  10223f:	8b 45 ec             	mov    -0x14(%ebp),%eax
  102242:	89 c2                	mov    %eax,%edx
  102244:	ec                   	in     (%dx),%al
  102245:	88 45 f2             	mov    %al,-0xe(%ebp)
	return data;
  102248:	0f b6 45 f2          	movzbl -0xe(%ebp),%eax
		// Bochs doesn 't support IMCR, so this doesn' t run on Bochs.
		// But it would on real hardware.
		outb(0x22, 0x70);		// Select IMCR
		outb(0x23, inb(0x23) | 1);	// Mask external interrupts.
  10224c:	83 c8 01             	or     $0x1,%eax
  10224f:	0f b6 c0             	movzbl %al,%eax
  102252:	c7 45 f4 23 00 00 00 	movl   $0x23,-0xc(%ebp)
  102259:	88 45 f3             	mov    %al,-0xd(%ebp)
}

static gcc_inline void
outb(int port, uint8_t data)
{
	__asm __volatile("outb %0,%w1" : : "a" (data), "d" (port));
  10225c:	0f b6 45 f3          	movzbl -0xd(%ebp),%eax
  102260:	8b 55 f4             	mov    -0xc(%ebp),%edx
  102263:	ee                   	out    %al,(%dx)
  102264:	eb 04                	jmp    10226a <mp_init+0x189>
	struct mpconf  *conf;
	struct mpproc  *proc;
	struct mpioapic *mpio;

	if (!cpu_onboot())	// only do once, on the boot CPU
		return;
  102266:	90                   	nop
  102267:	eb 01                	jmp    10226a <mp_init+0x189>

	if ((conf = mpconfig(&mp)) == 0)
		return; // Not a multiprocessor machine - just use boot CPU.
  102269:	90                   	nop
		// Bochs doesn 't support IMCR, so this doesn' t run on Bochs.
		// But it would on real hardware.
		outb(0x22, 0x70);		// Select IMCR
		outb(0x23, inb(0x23) | 1);	// Mask external interrupts.
	}
}
  10226a:	c9                   	leave  
  10226b:	c3                   	ret    

0010226c <xchg>:
}

// Atomically set *addr to newval and return the old value of *addr.
static inline uint32_t
xchg(volatile uint32_t *addr, uint32_t newval)
{
  10226c:	55                   	push   %ebp
  10226d:	89 e5                	mov    %esp,%ebp
  10226f:	83 ec 10             	sub    $0x10,%esp
	uint32_t result;

	// The + in "+m" denotes a read-modify-write operand.
	asm volatile("lock; xchgl %0, %1" :
  102272:	8b 55 08             	mov    0x8(%ebp),%edx
  102275:	8b 45 0c             	mov    0xc(%ebp),%eax
  102278:	8b 4d 08             	mov    0x8(%ebp),%ecx
  10227b:	f0 87 02             	lock xchg %eax,(%edx)
  10227e:	89 45 fc             	mov    %eax,-0x4(%ebp)
	       "+m" (*addr), "=a" (result) :
	       "1" (newval) :
	       "cc");
	return result;
  102281:	8b 45 fc             	mov    -0x4(%ebp),%eax
}
  102284:	c9                   	leave  
  102285:	c3                   	ret    

00102286 <cpu_cur>:
#define cpu_disabled(c)		0

// Find the CPU struct representing the current CPU.
// It always resides at the bottom of the page containing the CPU's stack.
static inline cpu *
cpu_cur() {
  102286:	55                   	push   %ebp
  102287:	89 e5                	mov    %esp,%ebp
  102289:	83 ec 28             	sub    $0x28,%esp

static gcc_inline uint32_t
read_esp(void)
{
        uint32_t esp;
        __asm __volatile("movl %%esp,%0" : "=rm" (esp));
  10228c:	89 65 f4             	mov    %esp,-0xc(%ebp)
        return esp;
  10228f:	8b 45 f4             	mov    -0xc(%ebp),%eax
	cpu *c = (cpu*)ROUNDDOWN(read_esp(), PAGESIZE);
  102292:	89 45 f0             	mov    %eax,-0x10(%ebp)
  102295:	8b 45 f0             	mov    -0x10(%ebp),%eax
  102298:	25 00 f0 ff ff       	and    $0xfffff000,%eax
  10229d:	89 45 ec             	mov    %eax,-0x14(%ebp)
	assert(c->magic == CPU_MAGIC);
  1022a0:	8b 45 ec             	mov    -0x14(%ebp),%eax
  1022a3:	8b 80 b8 00 00 00    	mov    0xb8(%eax),%eax
  1022a9:	3d 32 54 76 98       	cmp    $0x98765432,%eax
  1022ae:	74 24                	je     1022d4 <cpu_cur+0x4e>
  1022b0:	c7 44 24 0c 94 8b 10 	movl   $0x108b94,0xc(%esp)
  1022b7:	00 
  1022b8:	c7 44 24 08 aa 8b 10 	movl   $0x108baa,0x8(%esp)
  1022bf:	00 
  1022c0:	c7 44 24 04 5c 00 00 	movl   $0x5c,0x4(%esp)
  1022c7:	00 
  1022c8:	c7 04 24 bf 8b 10 00 	movl   $0x108bbf,(%esp)
  1022cf:	e8 ad e1 ff ff       	call   100481 <debug_panic>
	return c;
  1022d4:	8b 45 ec             	mov    -0x14(%ebp),%eax
}
  1022d7:	c9                   	leave  
  1022d8:	c3                   	ret    

001022d9 <spinlock_init_>:
#include <kern/cons.h>


void
spinlock_init_(struct spinlock *lk, const char *file, int line)
{
  1022d9:	55                   	push   %ebp
  1022da:	89 e5                	mov    %esp,%ebp
	lk->locked = 0;
  1022dc:	8b 45 08             	mov    0x8(%ebp),%eax
  1022df:	c7 00 00 00 00 00    	movl   $0x0,(%eax)
	lk->file = file;
  1022e5:	8b 45 08             	mov    0x8(%ebp),%eax
  1022e8:	8b 55 0c             	mov    0xc(%ebp),%edx
  1022eb:	89 50 04             	mov    %edx,0x4(%eax)
	lk->line = line;
  1022ee:	8b 45 08             	mov    0x8(%ebp),%eax
  1022f1:	8b 55 10             	mov    0x10(%ebp),%edx
  1022f4:	89 50 08             	mov    %edx,0x8(%eax)
	lk->cpu = NULL;
  1022f7:	8b 45 08             	mov    0x8(%ebp),%eax
  1022fa:	c7 40 0c 00 00 00 00 	movl   $0x0,0xc(%eax)
	lk->eips[0] = 0;
  102301:	8b 45 08             	mov    0x8(%ebp),%eax
  102304:	c7 40 10 00 00 00 00 	movl   $0x0,0x10(%eax)
}
  10230b:	5d                   	pop    %ebp
  10230c:	c3                   	ret    

0010230d <spinlock_acquire>:
// Loops (spins) until the lock is acquired.
// Holding a lock for a long time may cause
// other CPUs to waste time spinning to acquire it.
void
spinlock_acquire(struct spinlock *lk)
{
  10230d:	55                   	push   %ebp
  10230e:	89 e5                	mov    %esp,%ebp
  102310:	83 ec 28             	sub    $0x28,%esp
	//cprintf("in sa\n");

	if(spinlock_holding(lk)){
  102313:	8b 45 08             	mov    0x8(%ebp),%eax
  102316:	89 04 24             	mov    %eax,(%esp)
  102319:	e8 b6 00 00 00       	call   1023d4 <spinlock_holding>
  10231e:	85 c0                	test   %eax,%eax
  102320:	74 1c                	je     10233e <spinlock_acquire+0x31>
		//cprintf("acquire\n");
		//cprintf("file = %s, line = %d, cpu = %d\n", lk->file, lk->line, lk->cpu->id);
		panic("acquire");
  102322:	c7 44 24 08 cc 8b 10 	movl   $0x108bcc,0x8(%esp)
  102329:	00 
  10232a:	c7 44 24 04 29 00 00 	movl   $0x29,0x4(%esp)
  102331:	00 
  102332:	c7 04 24 d4 8b 10 00 	movl   $0x108bd4,(%esp)
  102339:	e8 43 e1 ff ff       	call   100481 <debug_panic>
	}

	while(xchg(&lk->locked, 1) !=0)
  10233e:	8b 45 08             	mov    0x8(%ebp),%eax
  102341:	c7 44 24 04 01 00 00 	movl   $0x1,0x4(%esp)
  102348:	00 
  102349:	89 04 24             	mov    %eax,(%esp)
  10234c:	e8 1b ff ff ff       	call   10226c <xchg>
  102351:	85 c0                	test   %eax,%eax
  102353:	75 e9                	jne    10233e <spinlock_acquire+0x31>
		{//cprintf("in xchg\n")
		;}

	lk->cpu = cpu_cur();
  102355:	e8 2c ff ff ff       	call   102286 <cpu_cur>
  10235a:	8b 55 08             	mov    0x8(%ebp),%edx
  10235d:	89 42 0c             	mov    %eax,0xc(%edx)

	//cprintf("before dt\n");
	debug_trace(read_ebp(), lk->eips);
  102360:	8b 45 08             	mov    0x8(%ebp),%eax
  102363:	8d 50 10             	lea    0x10(%eax),%edx

static gcc_inline uint32_t
read_ebp(void)
{
        uint32_t ebp;
        __asm __volatile("movl %%ebp,%0" : "=rm" (ebp));
  102366:	89 6d f4             	mov    %ebp,-0xc(%ebp)
        return ebp;
  102369:	8b 45 f4             	mov    -0xc(%ebp),%eax
  10236c:	89 54 24 04          	mov    %edx,0x4(%esp)
  102370:	89 04 24             	mov    %eax,(%esp)
  102373:	e8 11 e2 ff ff       	call   100589 <debug_trace>
	//cprintf("after dt\n");

	//cprintf("after sa\n");

	//cprintf("acquire lock num: %d on cpu: %d\n", lk->number, lk->cpu->id);
}
  102378:	c9                   	leave  
  102379:	c3                   	ret    

0010237a <spinlock_release>:

// Release the lock.
void
spinlock_release(struct spinlock *lk)
{
  10237a:	55                   	push   %ebp
  10237b:	89 e5                	mov    %esp,%ebp
  10237d:	83 ec 18             	sub    $0x18,%esp
	if(!spinlock_holding(lk))
  102380:	8b 45 08             	mov    0x8(%ebp),%eax
  102383:	89 04 24             	mov    %eax,(%esp)
  102386:	e8 49 00 00 00       	call   1023d4 <spinlock_holding>
  10238b:	85 c0                	test   %eax,%eax
  10238d:	75 1c                	jne    1023ab <spinlock_release+0x31>
		panic("release");
  10238f:	c7 44 24 08 e4 8b 10 	movl   $0x108be4,0x8(%esp)
  102396:	00 
  102397:	c7 44 24 04 40 00 00 	movl   $0x40,0x4(%esp)
  10239e:	00 
  10239f:	c7 04 24 d4 8b 10 00 	movl   $0x108bd4,(%esp)
  1023a6:	e8 d6 e0 ff ff       	call   100481 <debug_panic>

	lk->cpu = NULL;
  1023ab:	8b 45 08             	mov    0x8(%ebp),%eax
  1023ae:	c7 40 0c 00 00 00 00 	movl   $0x0,0xc(%eax)

	xchg(&lk->locked, 0);
  1023b5:	8b 45 08             	mov    0x8(%ebp),%eax
  1023b8:	c7 44 24 04 00 00 00 	movl   $0x0,0x4(%esp)
  1023bf:	00 
  1023c0:	89 04 24             	mov    %eax,(%esp)
  1023c3:	e8 a4 fe ff ff       	call   10226c <xchg>

	lk->eips[0] = 0;
  1023c8:	8b 45 08             	mov    0x8(%ebp),%eax
  1023cb:	c7 40 10 00 00 00 00 	movl   $0x0,0x10(%eax)

	//cprintf("release lock num: %d on cpu: %d\n", lk->number, lk->cpu->id);
}
  1023d2:	c9                   	leave  
  1023d3:	c3                   	ret    

001023d4 <spinlock_holding>:

// Check whether this cpu is holding the lock.
int
spinlock_holding(spinlock *lock)
{
  1023d4:	55                   	push   %ebp
  1023d5:	89 e5                	mov    %esp,%ebp
  1023d7:	53                   	push   %ebx
  1023d8:	83 ec 04             	sub    $0x4,%esp
	return (lock->cpu == cpu_cur()) && (lock->locked);
  1023db:	8b 45 08             	mov    0x8(%ebp),%eax
  1023de:	8b 58 0c             	mov    0xc(%eax),%ebx
  1023e1:	e8 a0 fe ff ff       	call   102286 <cpu_cur>
  1023e6:	39 c3                	cmp    %eax,%ebx
  1023e8:	75 10                	jne    1023fa <spinlock_holding+0x26>
  1023ea:	8b 45 08             	mov    0x8(%ebp),%eax
  1023ed:	8b 00                	mov    (%eax),%eax
  1023ef:	85 c0                	test   %eax,%eax
  1023f1:	74 07                	je     1023fa <spinlock_holding+0x26>
  1023f3:	b8 01 00 00 00       	mov    $0x1,%eax
  1023f8:	eb 05                	jmp    1023ff <spinlock_holding+0x2b>
  1023fa:	b8 00 00 00 00       	mov    $0x0,%eax
	//panic("spinlock_holding() not implemented");
}
  1023ff:	83 c4 04             	add    $0x4,%esp
  102402:	5b                   	pop    %ebx
  102403:	5d                   	pop    %ebp
  102404:	c3                   	ret    

00102405 <spinlock_godeep>:
// Function that simply recurses to a specified depth.
// The useless return value and volatile parameter are
// so GCC doesn't collapse it via tail-call elimination.
int gcc_noinline
spinlock_godeep(volatile int depth, spinlock* lk)
{
  102405:	55                   	push   %ebp
  102406:	89 e5                	mov    %esp,%ebp
  102408:	83 ec 18             	sub    $0x18,%esp
	if (depth==0) { spinlock_acquire(lk); return 1; }
  10240b:	8b 45 08             	mov    0x8(%ebp),%eax
  10240e:	85 c0                	test   %eax,%eax
  102410:	75 12                	jne    102424 <spinlock_godeep+0x1f>
  102412:	8b 45 0c             	mov    0xc(%ebp),%eax
  102415:	89 04 24             	mov    %eax,(%esp)
  102418:	e8 f0 fe ff ff       	call   10230d <spinlock_acquire>
  10241d:	b8 01 00 00 00       	mov    $0x1,%eax
  102422:	eb 1b                	jmp    10243f <spinlock_godeep+0x3a>
	else return spinlock_godeep(depth-1, lk) * depth;
  102424:	8b 45 08             	mov    0x8(%ebp),%eax
  102427:	8d 50 ff             	lea    -0x1(%eax),%edx
  10242a:	8b 45 0c             	mov    0xc(%ebp),%eax
  10242d:	89 44 24 04          	mov    %eax,0x4(%esp)
  102431:	89 14 24             	mov    %edx,(%esp)
  102434:	e8 cc ff ff ff       	call   102405 <spinlock_godeep>
  102439:	8b 55 08             	mov    0x8(%ebp),%edx
  10243c:	0f af c2             	imul   %edx,%eax
}
  10243f:	c9                   	leave  
  102440:	c3                   	ret    

00102441 <spinlock_check>:



void spinlock_check()
{
  102441:	55                   	push   %ebp
  102442:	89 e5                	mov    %esp,%ebp
  102444:	57                   	push   %edi
  102445:	56                   	push   %esi
  102446:	53                   	push   %ebx
  102447:	83 ec 5c             	sub    $0x5c,%esp
  10244a:	89 e0                	mov    %esp,%eax
  10244c:	89 45 c4             	mov    %eax,-0x3c(%ebp)
	const int NUMLOCKS=10;
  10244f:	c7 45 d0 0a 00 00 00 	movl   $0xa,-0x30(%ebp)
	const int NUMRUNS=5;
  102456:	c7 45 d4 05 00 00 00 	movl   $0x5,-0x2c(%ebp)
	int i,j,run;
	const char* file = "spinlock_check";
  10245d:	c7 45 e4 ec 8b 10 00 	movl   $0x108bec,-0x1c(%ebp)
	spinlock locks[NUMLOCKS];
  102464:	8b 45 d0             	mov    -0x30(%ebp),%eax
  102467:	83 e8 01             	sub    $0x1,%eax
  10246a:	89 45 c8             	mov    %eax,-0x38(%ebp)
  10246d:	8b 45 d0             	mov    -0x30(%ebp),%eax
  102470:	ba 00 00 00 00       	mov    $0x0,%edx
  102475:	89 c1                	mov    %eax,%ecx
  102477:	80 e5 ff             	and    $0xff,%ch
  10247a:	89 d3                	mov    %edx,%ebx
  10247c:	83 e3 0f             	and    $0xf,%ebx
  10247f:	89 c8                	mov    %ecx,%eax
  102481:	89 da                	mov    %ebx,%edx
  102483:	69 da c0 01 00 00    	imul   $0x1c0,%edx,%ebx
  102489:	6b c8 00             	imul   $0x0,%eax,%ecx
  10248c:	01 cb                	add    %ecx,%ebx
  10248e:	b9 c0 01 00 00       	mov    $0x1c0,%ecx
  102493:	f7 e1                	mul    %ecx
  102495:	01 d3                	add    %edx,%ebx
  102497:	89 da                	mov    %ebx,%edx
  102499:	89 c6                	mov    %eax,%esi
  10249b:	83 e6 ff             	and    $0xffffffff,%esi
  10249e:	89 d7                	mov    %edx,%edi
  1024a0:	83 e7 0f             	and    $0xf,%edi
  1024a3:	89 f0                	mov    %esi,%eax
  1024a5:	89 fa                	mov    %edi,%edx
  1024a7:	8b 45 d0             	mov    -0x30(%ebp),%eax
  1024aa:	c1 e0 03             	shl    $0x3,%eax
  1024ad:	8b 45 d0             	mov    -0x30(%ebp),%eax
  1024b0:	ba 00 00 00 00       	mov    $0x0,%edx
  1024b5:	89 c1                	mov    %eax,%ecx
  1024b7:	80 e5 ff             	and    $0xff,%ch
  1024ba:	89 4d b8             	mov    %ecx,-0x48(%ebp)
  1024bd:	89 d3                	mov    %edx,%ebx
  1024bf:	83 e3 0f             	and    $0xf,%ebx
  1024c2:	89 5d bc             	mov    %ebx,-0x44(%ebp)
  1024c5:	8b 45 b8             	mov    -0x48(%ebp),%eax
  1024c8:	8b 55 bc             	mov    -0x44(%ebp),%edx
  1024cb:	69 ca c0 01 00 00    	imul   $0x1c0,%edx,%ecx
  1024d1:	6b d8 00             	imul   $0x0,%eax,%ebx
  1024d4:	01 d9                	add    %ebx,%ecx
  1024d6:	bb c0 01 00 00       	mov    $0x1c0,%ebx
  1024db:	f7 e3                	mul    %ebx
  1024dd:	01 d1                	add    %edx,%ecx
  1024df:	89 ca                	mov    %ecx,%edx
  1024e1:	89 c1                	mov    %eax,%ecx
  1024e3:	80 e5 ff             	and    $0xff,%ch
  1024e6:	89 4d b0             	mov    %ecx,-0x50(%ebp)
  1024e9:	89 d3                	mov    %edx,%ebx
  1024eb:	83 e3 0f             	and    $0xf,%ebx
  1024ee:	89 5d b4             	mov    %ebx,-0x4c(%ebp)
  1024f1:	8b 45 b0             	mov    -0x50(%ebp),%eax
  1024f4:	8b 55 b4             	mov    -0x4c(%ebp),%edx
  1024f7:	8b 45 d0             	mov    -0x30(%ebp),%eax
  1024fa:	c1 e0 03             	shl    $0x3,%eax
  1024fd:	8d 14 c5 00 00 00 00 	lea    0x0(,%eax,8),%edx
  102504:	89 d1                	mov    %edx,%ecx
  102506:	29 c1                	sub    %eax,%ecx
  102508:	89 c8                	mov    %ecx,%eax
  10250a:	83 c0 0f             	add    $0xf,%eax
  10250d:	83 c0 0f             	add    $0xf,%eax
  102510:	c1 e8 04             	shr    $0x4,%eax
  102513:	c1 e0 04             	shl    $0x4,%eax
  102516:	29 c4                	sub    %eax,%esp
  102518:	8d 44 24 10          	lea    0x10(%esp),%eax
  10251c:	83 c0 0f             	add    $0xf,%eax
  10251f:	c1 e8 04             	shr    $0x4,%eax
  102522:	c1 e0 04             	shl    $0x4,%eax
  102525:	89 45 cc             	mov    %eax,-0x34(%ebp)

	// Initialize the locks
	for(i=0;i<NUMLOCKS;i++) spinlock_init_(&locks[i], file, 0);
  102528:	c7 45 d8 00 00 00 00 	movl   $0x0,-0x28(%ebp)
  10252f:	eb 33                	jmp    102564 <spinlock_check+0x123>
  102531:	8b 55 cc             	mov    -0x34(%ebp),%edx
  102534:	8b 45 d8             	mov    -0x28(%ebp),%eax
  102537:	c1 e0 03             	shl    $0x3,%eax
  10253a:	8d 0c c5 00 00 00 00 	lea    0x0(,%eax,8),%ecx
  102541:	89 cb                	mov    %ecx,%ebx
  102543:	29 c3                	sub    %eax,%ebx
  102545:	89 d8                	mov    %ebx,%eax
  102547:	01 c2                	add    %eax,%edx
  102549:	c7 44 24 08 00 00 00 	movl   $0x0,0x8(%esp)
  102550:	00 
  102551:	8b 45 e4             	mov    -0x1c(%ebp),%eax
  102554:	89 44 24 04          	mov    %eax,0x4(%esp)
  102558:	89 14 24             	mov    %edx,(%esp)
  10255b:	e8 79 fd ff ff       	call   1022d9 <spinlock_init_>
  102560:	83 45 d8 01          	addl   $0x1,-0x28(%ebp)
  102564:	8b 45 d8             	mov    -0x28(%ebp),%eax
  102567:	3b 45 d0             	cmp    -0x30(%ebp),%eax
  10256a:	7c c5                	jl     102531 <spinlock_check+0xf0>
	// Make sure that all locks have CPU set to NULL initially
	for(i=0;i<NUMLOCKS;i++) assert(locks[i].cpu==NULL);
  10256c:	c7 45 d8 00 00 00 00 	movl   $0x0,-0x28(%ebp)
  102573:	eb 46                	jmp    1025bb <spinlock_check+0x17a>
  102575:	8b 45 d8             	mov    -0x28(%ebp),%eax
  102578:	8b 4d cc             	mov    -0x34(%ebp),%ecx
  10257b:	c1 e0 03             	shl    $0x3,%eax
  10257e:	8d 14 c5 00 00 00 00 	lea    0x0(,%eax,8),%edx
  102585:	29 c2                	sub    %eax,%edx
  102587:	8d 04 0a             	lea    (%edx,%ecx,1),%eax
  10258a:	83 c0 0c             	add    $0xc,%eax
  10258d:	8b 00                	mov    (%eax),%eax
  10258f:	85 c0                	test   %eax,%eax
  102591:	74 24                	je     1025b7 <spinlock_check+0x176>
  102593:	c7 44 24 0c fb 8b 10 	movl   $0x108bfb,0xc(%esp)
  10259a:	00 
  10259b:	c7 44 24 08 aa 8b 10 	movl   $0x108baa,0x8(%esp)
  1025a2:	00 
  1025a3:	c7 44 24 04 6a 00 00 	movl   $0x6a,0x4(%esp)
  1025aa:	00 
  1025ab:	c7 04 24 d4 8b 10 00 	movl   $0x108bd4,(%esp)
  1025b2:	e8 ca de ff ff       	call   100481 <debug_panic>
  1025b7:	83 45 d8 01          	addl   $0x1,-0x28(%ebp)
  1025bb:	8b 45 d8             	mov    -0x28(%ebp),%eax
  1025be:	3b 45 d0             	cmp    -0x30(%ebp),%eax
  1025c1:	7c b2                	jl     102575 <spinlock_check+0x134>
	// Make sure that all locks have the correct debug info.
	for(i=0;i<NUMLOCKS;i++) assert(locks[i].file==file);
  1025c3:	c7 45 d8 00 00 00 00 	movl   $0x0,-0x28(%ebp)
  1025ca:	eb 47                	jmp    102613 <spinlock_check+0x1d2>
  1025cc:	8b 45 d8             	mov    -0x28(%ebp),%eax
  1025cf:	8b 4d cc             	mov    -0x34(%ebp),%ecx
  1025d2:	c1 e0 03             	shl    $0x3,%eax
  1025d5:	8d 14 c5 00 00 00 00 	lea    0x0(,%eax,8),%edx
  1025dc:	29 c2                	sub    %eax,%edx
  1025de:	8d 04 0a             	lea    (%edx,%ecx,1),%eax
  1025e1:	83 c0 04             	add    $0x4,%eax
  1025e4:	8b 00                	mov    (%eax),%eax
  1025e6:	3b 45 e4             	cmp    -0x1c(%ebp),%eax
  1025e9:	74 24                	je     10260f <spinlock_check+0x1ce>
  1025eb:	c7 44 24 0c 0e 8c 10 	movl   $0x108c0e,0xc(%esp)
  1025f2:	00 
  1025f3:	c7 44 24 08 aa 8b 10 	movl   $0x108baa,0x8(%esp)
  1025fa:	00 
  1025fb:	c7 44 24 04 6c 00 00 	movl   $0x6c,0x4(%esp)
  102602:	00 
  102603:	c7 04 24 d4 8b 10 00 	movl   $0x108bd4,(%esp)
  10260a:	e8 72 de ff ff       	call   100481 <debug_panic>
  10260f:	83 45 d8 01          	addl   $0x1,-0x28(%ebp)
  102613:	8b 45 d8             	mov    -0x28(%ebp),%eax
  102616:	3b 45 d0             	cmp    -0x30(%ebp),%eax
  102619:	7c b1                	jl     1025cc <spinlock_check+0x18b>

	for (run=0;run<NUMRUNS;run++) 
  10261b:	c7 45 e0 00 00 00 00 	movl   $0x0,-0x20(%ebp)
  102622:	e9 25 03 00 00       	jmp    10294c <spinlock_check+0x50b>
	{
		// Lock all locks
		for(i=0;i<NUMLOCKS;i++)
  102627:	c7 45 d8 00 00 00 00 	movl   $0x0,-0x28(%ebp)
  10262e:	eb 3f                	jmp    10266f <spinlock_check+0x22e>
		{
			cprintf("%d\n", i);
  102630:	8b 45 d8             	mov    -0x28(%ebp),%eax
  102633:	89 44 24 04          	mov    %eax,0x4(%esp)
  102637:	c7 04 24 22 8c 10 00 	movl   $0x108c22,(%esp)
  10263e:	e8 1c 55 00 00       	call   107b5f <cprintf>
			spinlock_godeep(i, &locks[i]);
  102643:	8b 55 cc             	mov    -0x34(%ebp),%edx
  102646:	8b 45 d8             	mov    -0x28(%ebp),%eax
  102649:	c1 e0 03             	shl    $0x3,%eax
  10264c:	8d 0c c5 00 00 00 00 	lea    0x0(,%eax,8),%ecx
  102653:	89 cb                	mov    %ecx,%ebx
  102655:	29 c3                	sub    %eax,%ebx
  102657:	89 d8                	mov    %ebx,%eax
  102659:	8d 04 02             	lea    (%edx,%eax,1),%eax
  10265c:	89 44 24 04          	mov    %eax,0x4(%esp)
  102660:	8b 45 d8             	mov    -0x28(%ebp),%eax
  102663:	89 04 24             	mov    %eax,(%esp)
  102666:	e8 9a fd ff ff       	call   102405 <spinlock_godeep>
	for(i=0;i<NUMLOCKS;i++) assert(locks[i].file==file);

	for (run=0;run<NUMRUNS;run++) 
	{
		// Lock all locks
		for(i=0;i<NUMLOCKS;i++)
  10266b:	83 45 d8 01          	addl   $0x1,-0x28(%ebp)
  10266f:	8b 45 d8             	mov    -0x28(%ebp),%eax
  102672:	3b 45 d0             	cmp    -0x30(%ebp),%eax
  102675:	7c b9                	jl     102630 <spinlock_check+0x1ef>
			cprintf("%d\n", i);
			spinlock_godeep(i, &locks[i]);
		}

		// Make sure that all locks have the right CPU
		for(i=0;i<NUMLOCKS;i++)
  102677:	c7 45 d8 00 00 00 00 	movl   $0x0,-0x28(%ebp)
  10267e:	eb 4b                	jmp    1026cb <spinlock_check+0x28a>
			assert(locks[i].cpu == cpu_cur());
  102680:	8b 45 d8             	mov    -0x28(%ebp),%eax
  102683:	8b 4d cc             	mov    -0x34(%ebp),%ecx
  102686:	c1 e0 03             	shl    $0x3,%eax
  102689:	8d 14 c5 00 00 00 00 	lea    0x0(,%eax,8),%edx
  102690:	29 c2                	sub    %eax,%edx
  102692:	8d 04 0a             	lea    (%edx,%ecx,1),%eax
  102695:	83 c0 0c             	add    $0xc,%eax
  102698:	8b 18                	mov    (%eax),%ebx
  10269a:	e8 e7 fb ff ff       	call   102286 <cpu_cur>
  10269f:	39 c3                	cmp    %eax,%ebx
  1026a1:	74 24                	je     1026c7 <spinlock_check+0x286>
  1026a3:	c7 44 24 0c 26 8c 10 	movl   $0x108c26,0xc(%esp)
  1026aa:	00 
  1026ab:	c7 44 24 08 aa 8b 10 	movl   $0x108baa,0x8(%esp)
  1026b2:	00 
  1026b3:	c7 44 24 04 79 00 00 	movl   $0x79,0x4(%esp)
  1026ba:	00 
  1026bb:	c7 04 24 d4 8b 10 00 	movl   $0x108bd4,(%esp)
  1026c2:	e8 ba dd ff ff       	call   100481 <debug_panic>
			cprintf("%d\n", i);
			spinlock_godeep(i, &locks[i]);
		}

		// Make sure that all locks have the right CPU
		for(i=0;i<NUMLOCKS;i++)
  1026c7:	83 45 d8 01          	addl   $0x1,-0x28(%ebp)
  1026cb:	8b 45 d8             	mov    -0x28(%ebp),%eax
  1026ce:	3b 45 d0             	cmp    -0x30(%ebp),%eax
  1026d1:	7c ad                	jl     102680 <spinlock_check+0x23f>
			assert(locks[i].cpu == cpu_cur());
		// Make sure that all locks have holding correctly implemented.
		for(i=0;i<NUMLOCKS;i++)
  1026d3:	c7 45 d8 00 00 00 00 	movl   $0x0,-0x28(%ebp)
  1026da:	eb 4d                	jmp    102729 <spinlock_check+0x2e8>
			assert(spinlock_holding(&locks[i]) != 0);
  1026dc:	8b 55 cc             	mov    -0x34(%ebp),%edx
  1026df:	8b 45 d8             	mov    -0x28(%ebp),%eax
  1026e2:	c1 e0 03             	shl    $0x3,%eax
  1026e5:	8d 0c c5 00 00 00 00 	lea    0x0(,%eax,8),%ecx
  1026ec:	89 cb                	mov    %ecx,%ebx
  1026ee:	29 c3                	sub    %eax,%ebx
  1026f0:	89 d8                	mov    %ebx,%eax
  1026f2:	8d 04 02             	lea    (%edx,%eax,1),%eax
  1026f5:	89 04 24             	mov    %eax,(%esp)
  1026f8:	e8 d7 fc ff ff       	call   1023d4 <spinlock_holding>
  1026fd:	85 c0                	test   %eax,%eax
  1026ff:	75 24                	jne    102725 <spinlock_check+0x2e4>
  102701:	c7 44 24 0c 40 8c 10 	movl   $0x108c40,0xc(%esp)
  102708:	00 
  102709:	c7 44 24 08 aa 8b 10 	movl   $0x108baa,0x8(%esp)
  102710:	00 
  102711:	c7 44 24 04 7c 00 00 	movl   $0x7c,0x4(%esp)
  102718:	00 
  102719:	c7 04 24 d4 8b 10 00 	movl   $0x108bd4,(%esp)
  102720:	e8 5c dd ff ff       	call   100481 <debug_panic>

		// Make sure that all locks have the right CPU
		for(i=0;i<NUMLOCKS;i++)
			assert(locks[i].cpu == cpu_cur());
		// Make sure that all locks have holding correctly implemented.
		for(i=0;i<NUMLOCKS;i++)
  102725:	83 45 d8 01          	addl   $0x1,-0x28(%ebp)
  102729:	8b 45 d8             	mov    -0x28(%ebp),%eax
  10272c:	3b 45 d0             	cmp    -0x30(%ebp),%eax
  10272f:	7c ab                	jl     1026dc <spinlock_check+0x29b>
			assert(spinlock_holding(&locks[i]) != 0);
		// Make sure that top i frames are somewhere in godeep.
		for(i=0;i<NUMLOCKS;i++) 
  102731:	c7 45 d8 00 00 00 00 	movl   $0x0,-0x28(%ebp)
  102738:	e9 bd 00 00 00       	jmp    1027fa <spinlock_check+0x3b9>
		{
			for(j=0; j<=i && j < DEBUG_TRACEFRAMES ; j++) 
  10273d:	c7 45 dc 00 00 00 00 	movl   $0x0,-0x24(%ebp)
  102744:	e9 9b 00 00 00       	jmp    1027e4 <spinlock_check+0x3a3>
			{
				assert(locks[i].eips[j] >=
  102749:	8b 45 d8             	mov    -0x28(%ebp),%eax
  10274c:	8b 5d dc             	mov    -0x24(%ebp),%ebx
  10274f:	8b 4d cc             	mov    -0x34(%ebp),%ecx
  102752:	01 c0                	add    %eax,%eax
  102754:	8d 14 c5 00 00 00 00 	lea    0x0(,%eax,8),%edx
  10275b:	29 c2                	sub    %eax,%edx
  10275d:	8d 04 1a             	lea    (%edx,%ebx,1),%eax
  102760:	83 c0 04             	add    $0x4,%eax
  102763:	8b 14 81             	mov    (%ecx,%eax,4),%edx
  102766:	b8 05 24 10 00       	mov    $0x102405,%eax
  10276b:	39 c2                	cmp    %eax,%edx
  10276d:	73 24                	jae    102793 <spinlock_check+0x352>
  10276f:	c7 44 24 0c 64 8c 10 	movl   $0x108c64,0xc(%esp)
  102776:	00 
  102777:	c7 44 24 08 aa 8b 10 	movl   $0x108baa,0x8(%esp)
  10277e:	00 
  10277f:	c7 44 24 04 83 00 00 	movl   $0x83,0x4(%esp)
  102786:	00 
  102787:	c7 04 24 d4 8b 10 00 	movl   $0x108bd4,(%esp)
  10278e:	e8 ee dc ff ff       	call   100481 <debug_panic>
					(uint32_t)spinlock_godeep);
				assert(locks[i].eips[j] <
  102793:	8b 45 d8             	mov    -0x28(%ebp),%eax
  102796:	8b 5d dc             	mov    -0x24(%ebp),%ebx
  102799:	8b 4d cc             	mov    -0x34(%ebp),%ecx
  10279c:	01 c0                	add    %eax,%eax
  10279e:	8d 14 c5 00 00 00 00 	lea    0x0(,%eax,8),%edx
  1027a5:	29 c2                	sub    %eax,%edx
  1027a7:	8d 04 1a             	lea    (%edx,%ebx,1),%eax
  1027aa:	83 c0 04             	add    $0x4,%eax
  1027ad:	8b 04 81             	mov    (%ecx,%eax,4),%eax
  1027b0:	ba 05 24 10 00       	mov    $0x102405,%edx
  1027b5:	83 c2 64             	add    $0x64,%edx
  1027b8:	39 d0                	cmp    %edx,%eax
  1027ba:	72 24                	jb     1027e0 <spinlock_check+0x39f>
  1027bc:	c7 44 24 0c 94 8c 10 	movl   $0x108c94,0xc(%esp)
  1027c3:	00 
  1027c4:	c7 44 24 08 aa 8b 10 	movl   $0x108baa,0x8(%esp)
  1027cb:	00 
  1027cc:	c7 44 24 04 85 00 00 	movl   $0x85,0x4(%esp)
  1027d3:	00 
  1027d4:	c7 04 24 d4 8b 10 00 	movl   $0x108bd4,(%esp)
  1027db:	e8 a1 dc ff ff       	call   100481 <debug_panic>
		for(i=0;i<NUMLOCKS;i++)
			assert(spinlock_holding(&locks[i]) != 0);
		// Make sure that top i frames are somewhere in godeep.
		for(i=0;i<NUMLOCKS;i++) 
		{
			for(j=0; j<=i && j < DEBUG_TRACEFRAMES ; j++) 
  1027e0:	83 45 dc 01          	addl   $0x1,-0x24(%ebp)
  1027e4:	8b 45 dc             	mov    -0x24(%ebp),%eax
  1027e7:	3b 45 d8             	cmp    -0x28(%ebp),%eax
  1027ea:	7f 0a                	jg     1027f6 <spinlock_check+0x3b5>
  1027ec:	83 7d dc 09          	cmpl   $0x9,-0x24(%ebp)
  1027f0:	0f 8e 53 ff ff ff    	jle    102749 <spinlock_check+0x308>
			assert(locks[i].cpu == cpu_cur());
		// Make sure that all locks have holding correctly implemented.
		for(i=0;i<NUMLOCKS;i++)
			assert(spinlock_holding(&locks[i]) != 0);
		// Make sure that top i frames are somewhere in godeep.
		for(i=0;i<NUMLOCKS;i++) 
  1027f6:	83 45 d8 01          	addl   $0x1,-0x28(%ebp)
  1027fa:	8b 45 d8             	mov    -0x28(%ebp),%eax
  1027fd:	3b 45 d0             	cmp    -0x30(%ebp),%eax
  102800:	0f 8c 37 ff ff ff    	jl     10273d <spinlock_check+0x2fc>
					(uint32_t)spinlock_godeep+100);
			}
		}

		// Release all locks
		for(i=0;i<NUMLOCKS;i++) spinlock_release(&locks[i]);
  102806:	c7 45 d8 00 00 00 00 	movl   $0x0,-0x28(%ebp)
  10280d:	eb 25                	jmp    102834 <spinlock_check+0x3f3>
  10280f:	8b 55 cc             	mov    -0x34(%ebp),%edx
  102812:	8b 45 d8             	mov    -0x28(%ebp),%eax
  102815:	c1 e0 03             	shl    $0x3,%eax
  102818:	8d 0c c5 00 00 00 00 	lea    0x0(,%eax,8),%ecx
  10281f:	89 cb                	mov    %ecx,%ebx
  102821:	29 c3                	sub    %eax,%ebx
  102823:	89 d8                	mov    %ebx,%eax
  102825:	8d 04 02             	lea    (%edx,%eax,1),%eax
  102828:	89 04 24             	mov    %eax,(%esp)
  10282b:	e8 4a fb ff ff       	call   10237a <spinlock_release>
  102830:	83 45 d8 01          	addl   $0x1,-0x28(%ebp)
  102834:	8b 45 d8             	mov    -0x28(%ebp),%eax
  102837:	3b 45 d0             	cmp    -0x30(%ebp),%eax
  10283a:	7c d3                	jl     10280f <spinlock_check+0x3ce>
		// Make sure that the CPU has been cleared
		for(i=0;i<NUMLOCKS;i++) assert(locks[i].cpu == NULL);
  10283c:	c7 45 d8 00 00 00 00 	movl   $0x0,-0x28(%ebp)
  102843:	eb 46                	jmp    10288b <spinlock_check+0x44a>
  102845:	8b 45 d8             	mov    -0x28(%ebp),%eax
  102848:	8b 4d cc             	mov    -0x34(%ebp),%ecx
  10284b:	c1 e0 03             	shl    $0x3,%eax
  10284e:	8d 14 c5 00 00 00 00 	lea    0x0(,%eax,8),%edx
  102855:	29 c2                	sub    %eax,%edx
  102857:	8d 04 0a             	lea    (%edx,%ecx,1),%eax
  10285a:	83 c0 0c             	add    $0xc,%eax
  10285d:	8b 00                	mov    (%eax),%eax
  10285f:	85 c0                	test   %eax,%eax
  102861:	74 24                	je     102887 <spinlock_check+0x446>
  102863:	c7 44 24 0c c5 8c 10 	movl   $0x108cc5,0xc(%esp)
  10286a:	00 
  10286b:	c7 44 24 08 aa 8b 10 	movl   $0x108baa,0x8(%esp)
  102872:	00 
  102873:	c7 44 24 04 8c 00 00 	movl   $0x8c,0x4(%esp)
  10287a:	00 
  10287b:	c7 04 24 d4 8b 10 00 	movl   $0x108bd4,(%esp)
  102882:	e8 fa db ff ff       	call   100481 <debug_panic>
  102887:	83 45 d8 01          	addl   $0x1,-0x28(%ebp)
  10288b:	8b 45 d8             	mov    -0x28(%ebp),%eax
  10288e:	3b 45 d0             	cmp    -0x30(%ebp),%eax
  102891:	7c b2                	jl     102845 <spinlock_check+0x404>
		for(i=0;i<NUMLOCKS;i++) assert(locks[i].eips[0]==0);
  102893:	c7 45 d8 00 00 00 00 	movl   $0x0,-0x28(%ebp)
  10289a:	eb 46                	jmp    1028e2 <spinlock_check+0x4a1>
  10289c:	8b 45 d8             	mov    -0x28(%ebp),%eax
  10289f:	8b 4d cc             	mov    -0x34(%ebp),%ecx
  1028a2:	c1 e0 03             	shl    $0x3,%eax
  1028a5:	8d 14 c5 00 00 00 00 	lea    0x0(,%eax,8),%edx
  1028ac:	29 c2                	sub    %eax,%edx
  1028ae:	8d 04 0a             	lea    (%edx,%ecx,1),%eax
  1028b1:	83 c0 10             	add    $0x10,%eax
  1028b4:	8b 00                	mov    (%eax),%eax
  1028b6:	85 c0                	test   %eax,%eax
  1028b8:	74 24                	je     1028de <spinlock_check+0x49d>
  1028ba:	c7 44 24 0c da 8c 10 	movl   $0x108cda,0xc(%esp)
  1028c1:	00 
  1028c2:	c7 44 24 08 aa 8b 10 	movl   $0x108baa,0x8(%esp)
  1028c9:	00 
  1028ca:	c7 44 24 04 8d 00 00 	movl   $0x8d,0x4(%esp)
  1028d1:	00 
  1028d2:	c7 04 24 d4 8b 10 00 	movl   $0x108bd4,(%esp)
  1028d9:	e8 a3 db ff ff       	call   100481 <debug_panic>
  1028de:	83 45 d8 01          	addl   $0x1,-0x28(%ebp)
  1028e2:	8b 45 d8             	mov    -0x28(%ebp),%eax
  1028e5:	3b 45 d0             	cmp    -0x30(%ebp),%eax
  1028e8:	7c b2                	jl     10289c <spinlock_check+0x45b>
		// Make sure that all locks have holding correctly implemented.
		for(i=0;i<NUMLOCKS;i++) assert(spinlock_holding(&locks[i]) == 0);
  1028ea:	c7 45 d8 00 00 00 00 	movl   $0x0,-0x28(%ebp)
  1028f1:	eb 4d                	jmp    102940 <spinlock_check+0x4ff>
  1028f3:	8b 55 cc             	mov    -0x34(%ebp),%edx
  1028f6:	8b 45 d8             	mov    -0x28(%ebp),%eax
  1028f9:	c1 e0 03             	shl    $0x3,%eax
  1028fc:	8d 0c c5 00 00 00 00 	lea    0x0(,%eax,8),%ecx
  102903:	89 cb                	mov    %ecx,%ebx
  102905:	29 c3                	sub    %eax,%ebx
  102907:	89 d8                	mov    %ebx,%eax
  102909:	8d 04 02             	lea    (%edx,%eax,1),%eax
  10290c:	89 04 24             	mov    %eax,(%esp)
  10290f:	e8 c0 fa ff ff       	call   1023d4 <spinlock_holding>
  102914:	85 c0                	test   %eax,%eax
  102916:	74 24                	je     10293c <spinlock_check+0x4fb>
  102918:	c7 44 24 0c f0 8c 10 	movl   $0x108cf0,0xc(%esp)
  10291f:	00 
  102920:	c7 44 24 08 aa 8b 10 	movl   $0x108baa,0x8(%esp)
  102927:	00 
  102928:	c7 44 24 04 8f 00 00 	movl   $0x8f,0x4(%esp)
  10292f:	00 
  102930:	c7 04 24 d4 8b 10 00 	movl   $0x108bd4,(%esp)
  102937:	e8 45 db ff ff       	call   100481 <debug_panic>
  10293c:	83 45 d8 01          	addl   $0x1,-0x28(%ebp)
  102940:	8b 45 d8             	mov    -0x28(%ebp),%eax
  102943:	3b 45 d0             	cmp    -0x30(%ebp),%eax
  102946:	7c ab                	jl     1028f3 <spinlock_check+0x4b2>
	// Make sure that all locks have CPU set to NULL initially
	for(i=0;i<NUMLOCKS;i++) assert(locks[i].cpu==NULL);
	// Make sure that all locks have the correct debug info.
	for(i=0;i<NUMLOCKS;i++) assert(locks[i].file==file);

	for (run=0;run<NUMRUNS;run++) 
  102948:	83 45 e0 01          	addl   $0x1,-0x20(%ebp)
  10294c:	8b 45 e0             	mov    -0x20(%ebp),%eax
  10294f:	3b 45 d4             	cmp    -0x2c(%ebp),%eax
  102952:	0f 8c cf fc ff ff    	jl     102627 <spinlock_check+0x1e6>
		for(i=0;i<NUMLOCKS;i++) assert(locks[i].cpu == NULL);
		for(i=0;i<NUMLOCKS;i++) assert(locks[i].eips[0]==0);
		// Make sure that all locks have holding correctly implemented.
		for(i=0;i<NUMLOCKS;i++) assert(spinlock_holding(&locks[i]) == 0);
	}
	cprintf("spinlock_check() succeeded!\n");
  102958:	c7 04 24 11 8d 10 00 	movl   $0x108d11,(%esp)
  10295f:	e8 fb 51 00 00       	call   107b5f <cprintf>
  102964:	8b 65 c4             	mov    -0x3c(%ebp),%esp
}
  102967:	8d 65 f4             	lea    -0xc(%ebp),%esp
  10296a:	83 c4 00             	add    $0x0,%esp
  10296d:	5b                   	pop    %ebx
  10296e:	5e                   	pop    %esi
  10296f:	5f                   	pop    %edi
  102970:	5d                   	pop    %ebp
  102971:	c3                   	ret    

00102972 <xchg>:
}

// Atomically set *addr to newval and return the old value of *addr.
static inline uint32_t
xchg(volatile uint32_t *addr, uint32_t newval)
{
  102972:	55                   	push   %ebp
  102973:	89 e5                	mov    %esp,%ebp
  102975:	83 ec 10             	sub    $0x10,%esp
	uint32_t result;

	// The + in "+m" denotes a read-modify-write operand.
	asm volatile("lock; xchgl %0, %1" :
  102978:	8b 55 08             	mov    0x8(%ebp),%edx
  10297b:	8b 45 0c             	mov    0xc(%ebp),%eax
  10297e:	8b 4d 08             	mov    0x8(%ebp),%ecx
  102981:	f0 87 02             	lock xchg %eax,(%edx)
  102984:	89 45 fc             	mov    %eax,-0x4(%ebp)
	       "+m" (*addr), "=a" (result) :
	       "1" (newval) :
	       "cc");
	return result;
  102987:	8b 45 fc             	mov    -0x4(%ebp),%eax
}
  10298a:	c9                   	leave  
  10298b:	c3                   	ret    

0010298c <lockadd>:

// Atomically add incr to *addr.
static inline void
lockadd(volatile int32_t *addr, int32_t incr)
{
  10298c:	55                   	push   %ebp
  10298d:	89 e5                	mov    %esp,%ebp
	asm volatile("lock; addl %1,%0" : "+m" (*addr) : "r" (incr) : "cc");
  10298f:	8b 45 08             	mov    0x8(%ebp),%eax
  102992:	8b 55 0c             	mov    0xc(%ebp),%edx
  102995:	8b 4d 08             	mov    0x8(%ebp),%ecx
  102998:	f0 01 10             	lock add %edx,(%eax)
}
  10299b:	5d                   	pop    %ebp
  10299c:	c3                   	ret    

0010299d <pause>:
	return result;
}

static inline void
pause(void)
{
  10299d:	55                   	push   %ebp
  10299e:	89 e5                	mov    %esp,%ebp
	asm volatile("pause" : : : "memory");
  1029a0:	f3 90                	pause  
}
  1029a2:	5d                   	pop    %ebp
  1029a3:	c3                   	ret    

001029a4 <cpu_cur>:
#define cpu_disabled(c)		0

// Find the CPU struct representing the current CPU.
// It always resides at the bottom of the page containing the CPU's stack.
static inline cpu *
cpu_cur() {
  1029a4:	55                   	push   %ebp
  1029a5:	89 e5                	mov    %esp,%ebp
  1029a7:	83 ec 28             	sub    $0x28,%esp

static gcc_inline uint32_t
read_esp(void)
{
        uint32_t esp;
        __asm __volatile("movl %%esp,%0" : "=rm" (esp));
  1029aa:	89 65 f4             	mov    %esp,-0xc(%ebp)
        return esp;
  1029ad:	8b 45 f4             	mov    -0xc(%ebp),%eax
	cpu *c = (cpu*)ROUNDDOWN(read_esp(), PAGESIZE);
  1029b0:	89 45 f0             	mov    %eax,-0x10(%ebp)
  1029b3:	8b 45 f0             	mov    -0x10(%ebp),%eax
  1029b6:	25 00 f0 ff ff       	and    $0xfffff000,%eax
  1029bb:	89 45 ec             	mov    %eax,-0x14(%ebp)
	assert(c->magic == CPU_MAGIC);
  1029be:	8b 45 ec             	mov    -0x14(%ebp),%eax
  1029c1:	8b 80 b8 00 00 00    	mov    0xb8(%eax),%eax
  1029c7:	3d 32 54 76 98       	cmp    $0x98765432,%eax
  1029cc:	74 24                	je     1029f2 <cpu_cur+0x4e>
  1029ce:	c7 44 24 0c 30 8d 10 	movl   $0x108d30,0xc(%esp)
  1029d5:	00 
  1029d6:	c7 44 24 08 46 8d 10 	movl   $0x108d46,0x8(%esp)
  1029dd:	00 
  1029de:	c7 44 24 04 5c 00 00 	movl   $0x5c,0x4(%esp)
  1029e5:	00 
  1029e6:	c7 04 24 5b 8d 10 00 	movl   $0x108d5b,(%esp)
  1029ed:	e8 8f da ff ff       	call   100481 <debug_panic>
	return c;
  1029f2:	8b 45 ec             	mov    -0x14(%ebp),%eax
}
  1029f5:	c9                   	leave  
  1029f6:	c3                   	ret    

001029f7 <cpu_onboot>:

// Returns true if we're running on the bootstrap CPU.
static inline int
cpu_onboot() {
  1029f7:	55                   	push   %ebp
  1029f8:	89 e5                	mov    %esp,%ebp
  1029fa:	83 ec 08             	sub    $0x8,%esp
	return cpu_cur() == &cpu_boot;
  1029fd:	e8 a2 ff ff ff       	call   1029a4 <cpu_cur>
  102a02:	3d 00 b0 10 00       	cmp    $0x10b000,%eax
  102a07:	0f 94 c0             	sete   %al
  102a0a:	0f b6 c0             	movzbl %al,%eax
}
  102a0d:	c9                   	leave  
  102a0e:	c3                   	ret    

00102a0f <proc_print>:



void
proc_print(TYPE ty, proc* p)
{
  102a0f:	55                   	push   %ebp
  102a10:	89 e5                	mov    %esp,%ebp
  102a12:	53                   	push   %ebx
  102a13:	83 ec 14             	sub    $0x14,%esp
	if(ty == ACQUIRE)
  102a16:	83 7d 08 00          	cmpl   $0x0,0x8(%ebp)
  102a1a:	75 0e                	jne    102a2a <proc_print+0x1b>
		cprintf("acquire lock ");
  102a1c:	c7 04 24 68 8d 10 00 	movl   $0x108d68,(%esp)
  102a23:	e8 37 51 00 00       	call   107b5f <cprintf>
  102a28:	eb 0c                	jmp    102a36 <proc_print+0x27>
	else
		cprintf("release lock ");
  102a2a:	c7 04 24 76 8d 10 00 	movl   $0x108d76,(%esp)
  102a31:	e8 29 51 00 00       	call   107b5f <cprintf>
	if(p != NULL)
  102a36:	83 7d 0c 00          	cmpl   $0x0,0xc(%ebp)
  102a3a:	74 2b                	je     102a67 <proc_print+0x58>
		cprintf("on cpu %d, process %d\n", cpu_cur()->id, p->num);
  102a3c:	8b 45 0c             	mov    0xc(%ebp),%eax
  102a3f:	8b 58 38             	mov    0x38(%eax),%ebx
  102a42:	e8 5d ff ff ff       	call   1029a4 <cpu_cur>
  102a47:	0f b6 80 ac 00 00 00 	movzbl 0xac(%eax),%eax
  102a4e:	0f b6 c0             	movzbl %al,%eax
  102a51:	89 5c 24 08          	mov    %ebx,0x8(%esp)
  102a55:	89 44 24 04          	mov    %eax,0x4(%esp)
  102a59:	c7 04 24 84 8d 10 00 	movl   $0x108d84,(%esp)
  102a60:	e8 fa 50 00 00       	call   107b5f <cprintf>
  102a65:	eb 1f                	jmp    102a86 <proc_print+0x77>
	else
		cprintf("on cpu %d\n", cpu_cur()->id);
  102a67:	e8 38 ff ff ff       	call   1029a4 <cpu_cur>
  102a6c:	0f b6 80 ac 00 00 00 	movzbl 0xac(%eax),%eax
  102a73:	0f b6 c0             	movzbl %al,%eax
  102a76:	89 44 24 04          	mov    %eax,0x4(%esp)
  102a7a:	c7 04 24 9b 8d 10 00 	movl   $0x108d9b,(%esp)
  102a81:	e8 d9 50 00 00       	call   107b5f <cprintf>
}
  102a86:	83 c4 14             	add    $0x14,%esp
  102a89:	5b                   	pop    %ebx
  102a8a:	5d                   	pop    %ebp
  102a8b:	c3                   	ret    

00102a8c <proc_init>:



void
proc_init(void)
{
  102a8c:	55                   	push   %ebp
  102a8d:	89 e5                	mov    %esp,%ebp
  102a8f:	83 ec 18             	sub    $0x18,%esp
	
	if (!cpu_onboot())
  102a92:	e8 60 ff ff ff       	call   1029f7 <cpu_onboot>
  102a97:	85 c0                	test   %eax,%eax
  102a99:	74 3c                	je     102ad7 <proc_init+0x4b>
		return;
	
	//cprintf("in proc_init, current cpu:%d\n", cpu_cur()->id);

	spinlock_init(&queue.lock);
  102a9b:	c7 44 24 08 38 00 00 	movl   $0x38,0x8(%esp)
  102aa2:	00 
  102aa3:	c7 44 24 04 a6 8d 10 	movl   $0x108da6,0x4(%esp)
  102aaa:	00 
  102aab:	c7 04 24 40 f4 31 00 	movl   $0x31f440,(%esp)
  102ab2:	e8 22 f8 ff ff       	call   1022d9 <spinlock_init_>

	queue.count= 0;
  102ab7:	c7 05 78 f4 31 00 00 	movl   $0x0,0x31f478
  102abe:	00 00 00 
	queue.head = NULL;
  102ac1:	c7 05 7c f4 31 00 00 	movl   $0x0,0x31f47c
  102ac8:	00 00 00 
	queue.tail= NULL;
  102acb:	c7 05 80 f4 31 00 00 	movl   $0x0,0x31f480
  102ad2:	00 00 00 
  102ad5:	eb 01                	jmp    102ad8 <proc_init+0x4c>
void
proc_init(void)
{
	
	if (!cpu_onboot())
		return;
  102ad7:	90                   	nop
	queue.head = NULL;
	queue.tail= NULL;
	
	
	// your module initialization code here
}
  102ad8:	c9                   	leave  
  102ad9:	c3                   	ret    

00102ada <proc_alloc>:

// Allocate and initialize a new proc as child 'cn' of parent 'p'.
// Returns NULL if no physical memory available.
proc *
proc_alloc(proc *p, uint32_t cn)
{
  102ada:	55                   	push   %ebp
  102adb:	89 e5                	mov    %esp,%ebp
  102add:	83 ec 28             	sub    $0x28,%esp

	//cprintf("in proc_alloc\n");
	
	pageinfo *pi = mem_alloc();
  102ae0:	e8 28 e0 ff ff       	call   100b0d <mem_alloc>
  102ae5:	89 45 ec             	mov    %eax,-0x14(%ebp)
	if (!pi)
  102ae8:	83 7d ec 00          	cmpl   $0x0,-0x14(%ebp)
  102aec:	75 0a                	jne    102af8 <proc_alloc+0x1e>
		return NULL;
  102aee:	b8 00 00 00 00       	mov    $0x0,%eax
  102af3:	e9 d6 01 00 00       	jmp    102cce <proc_alloc+0x1f4>
  102af8:	8b 45 ec             	mov    -0x14(%ebp),%eax
  102afb:	89 45 f4             	mov    %eax,-0xc(%ebp)

// Atomically increment the reference count on a page.
static gcc_inline void
mem_incref(pageinfo *pi)
{
	assert(pi > &mem_pageinfo[1] && pi < &mem_pageinfo[mem_npage]);
  102afe:	a1 58 ed 31 00       	mov    0x31ed58,%eax
  102b03:	83 c0 08             	add    $0x8,%eax
  102b06:	39 45 f4             	cmp    %eax,-0xc(%ebp)
  102b09:	76 15                	jbe    102b20 <proc_alloc+0x46>
  102b0b:	a1 58 ed 31 00       	mov    0x31ed58,%eax
  102b10:	8b 15 04 ed 11 00    	mov    0x11ed04,%edx
  102b16:	c1 e2 03             	shl    $0x3,%edx
  102b19:	01 d0                	add    %edx,%eax
  102b1b:	39 45 f4             	cmp    %eax,-0xc(%ebp)
  102b1e:	72 24                	jb     102b44 <proc_alloc+0x6a>
  102b20:	c7 44 24 0c b4 8d 10 	movl   $0x108db4,0xc(%esp)
  102b27:	00 
  102b28:	c7 44 24 08 46 8d 10 	movl   $0x108d46,0x8(%esp)
  102b2f:	00 
  102b30:	c7 44 24 04 58 00 00 	movl   $0x58,0x4(%esp)
  102b37:	00 
  102b38:	c7 04 24 eb 8d 10 00 	movl   $0x108deb,(%esp)
  102b3f:	e8 3d d9 ff ff       	call   100481 <debug_panic>
	assert(pi != mem_ptr2pi(pmap_zero));	// Don't alloc/free zero page!
  102b44:	a1 58 ed 31 00       	mov    0x31ed58,%eax
  102b49:	ba 00 10 32 00       	mov    $0x321000,%edx
  102b4e:	c1 ea 0c             	shr    $0xc,%edx
  102b51:	c1 e2 03             	shl    $0x3,%edx
  102b54:	01 d0                	add    %edx,%eax
  102b56:	39 45 f4             	cmp    %eax,-0xc(%ebp)
  102b59:	75 24                	jne    102b7f <proc_alloc+0xa5>
  102b5b:	c7 44 24 0c f8 8d 10 	movl   $0x108df8,0xc(%esp)
  102b62:	00 
  102b63:	c7 44 24 08 46 8d 10 	movl   $0x108d46,0x8(%esp)
  102b6a:	00 
  102b6b:	c7 44 24 04 59 00 00 	movl   $0x59,0x4(%esp)
  102b72:	00 
  102b73:	c7 04 24 eb 8d 10 00 	movl   $0x108deb,(%esp)
  102b7a:	e8 02 d9 ff ff       	call   100481 <debug_panic>
	assert(pi < mem_ptr2pi(start) || pi > mem_ptr2pi(end-1));
  102b7f:	a1 58 ed 31 00       	mov    0x31ed58,%eax
  102b84:	ba 0c 00 10 00       	mov    $0x10000c,%edx
  102b89:	c1 ea 0c             	shr    $0xc,%edx
  102b8c:	c1 e2 03             	shl    $0x3,%edx
  102b8f:	01 d0                	add    %edx,%eax
  102b91:	39 45 f4             	cmp    %eax,-0xc(%ebp)
  102b94:	72 3b                	jb     102bd1 <proc_alloc+0xf7>
  102b96:	a1 58 ed 31 00       	mov    0x31ed58,%eax
  102b9b:	ba 07 20 32 00       	mov    $0x322007,%edx
  102ba0:	c1 ea 0c             	shr    $0xc,%edx
  102ba3:	c1 e2 03             	shl    $0x3,%edx
  102ba6:	01 d0                	add    %edx,%eax
  102ba8:	39 45 f4             	cmp    %eax,-0xc(%ebp)
  102bab:	77 24                	ja     102bd1 <proc_alloc+0xf7>
  102bad:	c7 44 24 0c 14 8e 10 	movl   $0x108e14,0xc(%esp)
  102bb4:	00 
  102bb5:	c7 44 24 08 46 8d 10 	movl   $0x108d46,0x8(%esp)
  102bbc:	00 
  102bbd:	c7 44 24 04 5a 00 00 	movl   $0x5a,0x4(%esp)
  102bc4:	00 
  102bc5:	c7 04 24 eb 8d 10 00 	movl   $0x108deb,(%esp)
  102bcc:	e8 b0 d8 ff ff       	call   100481 <debug_panic>

	lockadd(&pi->refcount, 1);
  102bd1:	8b 45 f4             	mov    -0xc(%ebp),%eax
  102bd4:	83 c0 04             	add    $0x4,%eax
  102bd7:	c7 44 24 04 01 00 00 	movl   $0x1,0x4(%esp)
  102bde:	00 
  102bdf:	89 04 24             	mov    %eax,(%esp)
  102be2:	e8 a5 fd ff ff       	call   10298c <lockadd>
	mem_incref(pi);

	proc *cp = (proc*)mem_pi2ptr(pi);
  102be7:	8b 55 ec             	mov    -0x14(%ebp),%edx
  102bea:	a1 58 ed 31 00       	mov    0x31ed58,%eax
  102bef:	89 d1                	mov    %edx,%ecx
  102bf1:	29 c1                	sub    %eax,%ecx
  102bf3:	89 c8                	mov    %ecx,%eax
  102bf5:	c1 f8 03             	sar    $0x3,%eax
  102bf8:	c1 e0 0c             	shl    $0xc,%eax
  102bfb:	89 45 f0             	mov    %eax,-0x10(%ebp)
	memset(cp, 0, sizeof(proc));
  102bfe:	c7 44 24 08 b0 06 00 	movl   $0x6b0,0x8(%esp)
  102c05:	00 
  102c06:	c7 44 24 04 00 00 00 	movl   $0x0,0x4(%esp)
  102c0d:	00 
  102c0e:	8b 45 f0             	mov    -0x10(%ebp),%eax
  102c11:	89 04 24             	mov    %eax,(%esp)
  102c14:	e8 2b 51 00 00       	call   107d44 <memset>

	spinlock_init(&cp->lock);
  102c19:	8b 45 f0             	mov    -0x10(%ebp),%eax
  102c1c:	c7 44 24 08 52 00 00 	movl   $0x52,0x8(%esp)
  102c23:	00 
  102c24:	c7 44 24 04 a6 8d 10 	movl   $0x108da6,0x4(%esp)
  102c2b:	00 
  102c2c:	89 04 24             	mov    %eax,(%esp)
  102c2f:	e8 a5 f6 ff ff       	call   1022d9 <spinlock_init_>
	cp->parent = p;
  102c34:	8b 45 f0             	mov    -0x10(%ebp),%eax
  102c37:	8b 55 08             	mov    0x8(%ebp),%edx
  102c3a:	89 50 3c             	mov    %edx,0x3c(%eax)
	cp->state = PROC_STOP;
  102c3d:	8b 45 f0             	mov    -0x10(%ebp),%eax
  102c40:	c7 80 40 04 00 00 00 	movl   $0x0,0x440(%eax)
  102c47:	00 00 00 

	cp->num = count++;
  102c4a:	a1 20 aa 11 00       	mov    0x11aa20,%eax
  102c4f:	8b 55 f0             	mov    -0x10(%ebp),%edx
  102c52:	89 42 38             	mov    %eax,0x38(%edx)
  102c55:	83 c0 01             	add    $0x1,%eax
  102c58:	a3 20 aa 11 00       	mov    %eax,0x11aa20

	// Integer register state
	cp->sv.tf.ds = CPU_GDT_UDATA | 3;
  102c5d:	8b 45 f0             	mov    -0x10(%ebp),%eax
  102c60:	66 c7 80 7c 04 00 00 	movw   $0x23,0x47c(%eax)
  102c67:	23 00 
	cp->sv.tf.es = CPU_GDT_UDATA | 3;
  102c69:	8b 45 f0             	mov    -0x10(%ebp),%eax
  102c6c:	66 c7 80 78 04 00 00 	movw   $0x23,0x478(%eax)
  102c73:	23 00 
	cp->sv.tf.cs = CPU_GDT_UCODE | 3;
  102c75:	8b 45 f0             	mov    -0x10(%ebp),%eax
  102c78:	66 c7 80 8c 04 00 00 	movw   $0x1b,0x48c(%eax)
  102c7f:	1b 00 
	cp->sv.tf.ss = CPU_GDT_UDATA | 3;
  102c81:	8b 45 f0             	mov    -0x10(%ebp),%eax
  102c84:	66 c7 80 98 04 00 00 	movw   $0x23,0x498(%eax)
  102c8b:	23 00 

	cp->sv.tf.eflags = FL_IF;
  102c8d:	8b 45 f0             	mov    -0x10(%ebp),%eax
  102c90:	c7 80 90 04 00 00 00 	movl   $0x200,0x490(%eax)
  102c97:	02 00 00 

	if (p)
  102c9a:	83 7d 08 00          	cmpl   $0x0,0x8(%ebp)
  102c9e:	74 0f                	je     102caf <proc_alloc+0x1d5>
		p->child[cn] = cp;
  102ca0:	8b 55 0c             	mov    0xc(%ebp),%edx
  102ca3:	8b 45 08             	mov    0x8(%ebp),%eax
  102ca6:	8d 4a 10             	lea    0x10(%edx),%ecx
  102ca9:	8b 55 f0             	mov    -0x10(%ebp),%edx
  102cac:	89 14 88             	mov    %edx,(%eax,%ecx,4)

	cp->pdir = pmap_newpdir();
  102caf:	e8 96 11 00 00       	call   103e4a <pmap_newpdir>
  102cb4:	8b 55 f0             	mov    -0x10(%ebp),%edx
  102cb7:	89 82 a0 06 00 00    	mov    %eax,0x6a0(%edx)
	cp->rpdir = pmap_newpdir();
  102cbd:	e8 88 11 00 00       	call   103e4a <pmap_newpdir>
  102cc2:	8b 55 f0             	mov    -0x10(%ebp),%edx
  102cc5:	89 82 a4 06 00 00    	mov    %eax,0x6a4(%edx)
	
	return cp;
  102ccb:	8b 45 f0             	mov    -0x10(%ebp),%eax
}
  102cce:	c9                   	leave  
  102ccf:	c3                   	ret    

00102cd0 <proc_ready>:

// Put process p in the ready state and add it to the ready queue.
void
proc_ready(proc *p)
{
  102cd0:	55                   	push   %ebp
  102cd1:	89 e5                	mov    %esp,%ebp
  102cd3:	83 ec 18             	sub    $0x18,%esp
	//panic("proc_ready not implemented");

 	//cprintf("in ready, child num:%d\n", queue.count);
	if(p == NULL)
  102cd6:	83 7d 08 00          	cmpl   $0x0,0x8(%ebp)
  102cda:	75 1c                	jne    102cf8 <proc_ready+0x28>
		panic("proc_ready's p is null!");
  102cdc:	c7 44 24 08 45 8e 10 	movl   $0x108e45,0x8(%esp)
  102ce3:	00 
  102ce4:	c7 44 24 04 71 00 00 	movl   $0x71,0x4(%esp)
  102ceb:	00 
  102cec:	c7 04 24 a6 8d 10 00 	movl   $0x108da6,(%esp)
  102cf3:	e8 89 d7 ff ff       	call   100481 <debug_panic>
	
	assert(p->state != PROC_READY);
  102cf8:	8b 45 08             	mov    0x8(%ebp),%eax
  102cfb:	8b 80 40 04 00 00    	mov    0x440(%eax),%eax
  102d01:	83 f8 01             	cmp    $0x1,%eax
  102d04:	75 24                	jne    102d2a <proc_ready+0x5a>
  102d06:	c7 44 24 0c 5d 8e 10 	movl   $0x108e5d,0xc(%esp)
  102d0d:	00 
  102d0e:	c7 44 24 08 46 8d 10 	movl   $0x108d46,0x8(%esp)
  102d15:	00 
  102d16:	c7 44 24 04 73 00 00 	movl   $0x73,0x4(%esp)
  102d1d:	00 
  102d1e:	c7 04 24 a6 8d 10 00 	movl   $0x108da6,(%esp)
  102d25:	e8 57 d7 ff ff       	call   100481 <debug_panic>

	//proc_print(ACQUIRE, p);
	spinlock_acquire(&p->lock);
  102d2a:	8b 45 08             	mov    0x8(%ebp),%eax
  102d2d:	89 04 24             	mov    %eax,(%esp)
  102d30:	e8 d8 f5 ff ff       	call   10230d <spinlock_acquire>
	p->state = PROC_READY;
  102d35:	8b 45 08             	mov    0x8(%ebp),%eax
  102d38:	c7 80 40 04 00 00 01 	movl   $0x1,0x440(%eax)
  102d3f:	00 00 00 
	spinlock_acquire(&queue.lock);
  102d42:	c7 04 24 40 f4 31 00 	movl   $0x31f440,(%esp)
  102d49:	e8 bf f5 ff ff       	call   10230d <spinlock_acquire>
	// if there is no proc in queue now
	if(queue.count == 0){
  102d4e:	a1 78 f4 31 00       	mov    0x31f478,%eax
  102d53:	85 c0                	test   %eax,%eax
  102d55:	75 1f                	jne    102d76 <proc_ready+0xa6>
		//cprintf("in ready = 0\n");
		queue.count++;
  102d57:	a1 78 f4 31 00       	mov    0x31f478,%eax
  102d5c:	83 c0 01             	add    $0x1,%eax
  102d5f:	a3 78 f4 31 00       	mov    %eax,0x31f478
		queue.head = p;
  102d64:	8b 45 08             	mov    0x8(%ebp),%eax
  102d67:	a3 7c f4 31 00       	mov    %eax,0x31f47c
		queue.tail = p;
  102d6c:	8b 45 08             	mov    0x8(%ebp),%eax
  102d6f:	a3 80 f4 31 00       	mov    %eax,0x31f480
  102d74:	eb 24                	jmp    102d9a <proc_ready+0xca>
	}

	// insert it to the head of the queue
	else{
		//cprintf("in ready != 0\n");
		p->readynext = queue.head;
  102d76:	8b 15 7c f4 31 00    	mov    0x31f47c,%edx
  102d7c:	8b 45 08             	mov    0x8(%ebp),%eax
  102d7f:	89 90 44 04 00 00    	mov    %edx,0x444(%eax)
		queue.head = p;
  102d85:	8b 45 08             	mov    0x8(%ebp),%eax
  102d88:	a3 7c f4 31 00       	mov    %eax,0x31f47c
		queue.count += 1;
  102d8d:	a1 78 f4 31 00       	mov    0x31f478,%eax
  102d92:	83 c0 01             	add    $0x1,%eax
  102d95:	a3 78 f4 31 00       	mov    %eax,0x31f478
		//spinlock_release(&queue.lock);
		//proc_print(RELEASE, p);
		//spinlock_release(&p->lock);
	}

	spinlock_release(&p->lock);
  102d9a:	8b 45 08             	mov    0x8(%ebp),%eax
  102d9d:	89 04 24             	mov    %eax,(%esp)
  102da0:	e8 d5 f5 ff ff       	call   10237a <spinlock_release>
	spinlock_release(&queue.lock);
  102da5:	c7 04 24 40 f4 31 00 	movl   $0x31f440,(%esp)
  102dac:	e8 c9 f5 ff ff       	call   10237a <spinlock_release>
	return;
	
}
  102db1:	c9                   	leave  
  102db2:	c3                   	ret    

00102db3 <proc_save>:
//	-1	if we entered the kernel via a trap before executing an insn
//	0	if we entered via a syscall and must abort/rollback the syscall
//	1	if we entered via a syscall and are completing the syscall
void
proc_save(proc *p, trapframe *tf, int entry)
{
  102db3:	55                   	push   %ebp
  102db4:	89 e5                	mov    %esp,%ebp
  102db6:	83 ec 18             	sub    $0x18,%esp
	//proc_print(ACQUIRE, p);
	spinlock_acquire(&p->lock);
  102db9:	8b 45 08             	mov    0x8(%ebp),%eax
  102dbc:	89 04 24             	mov    %eax,(%esp)
  102dbf:	e8 49 f5 ff ff       	call   10230d <spinlock_acquire>

	switch(entry){
  102dc4:	8b 45 10             	mov    0x10(%ebp),%eax
  102dc7:	85 c0                	test   %eax,%eax
  102dc9:	74 2c                	je     102df7 <proc_save+0x44>
  102dcb:	83 f8 01             	cmp    $0x1,%eax
  102dce:	74 36                	je     102e06 <proc_save+0x53>
  102dd0:	83 f8 ff             	cmp    $0xffffffff,%eax
  102dd3:	75 53                	jne    102e28 <proc_save+0x75>
		case -1:		
			memmove(&(p->sv.tf), tf, sizeof(trapframe));
  102dd5:	8b 45 08             	mov    0x8(%ebp),%eax
  102dd8:	8d 90 50 04 00 00    	lea    0x450(%eax),%edx
  102dde:	c7 44 24 08 4c 00 00 	movl   $0x4c,0x8(%esp)
  102de5:	00 
  102de6:	8b 45 0c             	mov    0xc(%ebp),%eax
  102de9:	89 44 24 04          	mov    %eax,0x4(%esp)
  102ded:	89 14 24             	mov    %edx,(%esp)
  102df0:	e8 c3 4f 00 00       	call   107db8 <memmove>
			break;
  102df5:	eb 4d                	jmp    102e44 <proc_save+0x91>
		case 0:
			tf->eip = (uintptr_t)((char*)tf->eip - 2);
  102df7:	8b 45 0c             	mov    0xc(%ebp),%eax
  102dfa:	8b 40 38             	mov    0x38(%eax),%eax
  102dfd:	8d 50 fe             	lea    -0x2(%eax),%edx
  102e00:	8b 45 0c             	mov    0xc(%ebp),%eax
  102e03:	89 50 38             	mov    %edx,0x38(%eax)
		case 1:
			memmove(&(p->sv.tf), tf, sizeof(trapframe));
  102e06:	8b 45 08             	mov    0x8(%ebp),%eax
  102e09:	8d 90 50 04 00 00    	lea    0x450(%eax),%edx
  102e0f:	c7 44 24 08 4c 00 00 	movl   $0x4c,0x8(%esp)
  102e16:	00 
  102e17:	8b 45 0c             	mov    0xc(%ebp),%eax
  102e1a:	89 44 24 04          	mov    %eax,0x4(%esp)
  102e1e:	89 14 24             	mov    %edx,(%esp)
  102e21:	e8 92 4f 00 00       	call   107db8 <memmove>
			break;
  102e26:	eb 1c                	jmp    102e44 <proc_save+0x91>
		default:
			panic("wrong entry!\n");
  102e28:	c7 44 24 08 74 8e 10 	movl   $0x108e74,0x8(%esp)
  102e2f:	00 
  102e30:	c7 44 24 04 ad 00 00 	movl   $0xad,0x4(%esp)
  102e37:	00 
  102e38:	c7 04 24 a6 8d 10 00 	movl   $0x108da6,(%esp)
  102e3f:	e8 3d d6 ff ff       	call   100481 <debug_panic>
	}

	//proc_print(RELEASE, p);
	spinlock_release(&p->lock);
  102e44:	8b 45 08             	mov    0x8(%ebp),%eax
  102e47:	89 04 24             	mov    %eax,(%esp)
  102e4a:	e8 2b f5 ff ff       	call   10237a <spinlock_release>
}
  102e4f:	c9                   	leave  
  102e50:	c3                   	ret    

00102e51 <proc_wait>:
// Go to sleep waiting for a given child process to finish running.
// Parent process 'p' must be running and locked on entry.
// The supplied trapframe represents p's register state on syscall entry.
void gcc_noreturn
proc_wait(proc *p, proc *cp, trapframe *tf)
{
  102e51:	55                   	push   %ebp
  102e52:	89 e5                	mov    %esp,%ebp
  102e54:	83 ec 18             	sub    $0x18,%esp
	//panic("proc_wait not implemented");

	if(p == NULL || p->state != PROC_RUN)
  102e57:	83 7d 08 00          	cmpl   $0x0,0x8(%ebp)
  102e5b:	74 0e                	je     102e6b <proc_wait+0x1a>
  102e5d:	8b 45 08             	mov    0x8(%ebp),%eax
  102e60:	8b 80 40 04 00 00    	mov    0x440(%eax),%eax
  102e66:	83 f8 02             	cmp    $0x2,%eax
  102e69:	74 1c                	je     102e87 <proc_wait+0x36>
		panic("parent proc is not running!");
  102e6b:	c7 44 24 08 82 8e 10 	movl   $0x108e82,0x8(%esp)
  102e72:	00 
  102e73:	c7 44 24 04 bd 00 00 	movl   $0xbd,0x4(%esp)
  102e7a:	00 
  102e7b:	c7 04 24 a6 8d 10 00 	movl   $0x108da6,(%esp)
  102e82:	e8 fa d5 ff ff       	call   100481 <debug_panic>
	if(cp == NULL)
  102e87:	83 7d 0c 00          	cmpl   $0x0,0xc(%ebp)
  102e8b:	75 1c                	jne    102ea9 <proc_wait+0x58>
		panic("no child proc!");
  102e8d:	c7 44 24 08 9e 8e 10 	movl   $0x108e9e,0x8(%esp)
  102e94:	00 
  102e95:	c7 44 24 04 bf 00 00 	movl   $0xbf,0x4(%esp)
  102e9c:	00 
  102e9d:	c7 04 24 a6 8d 10 00 	movl   $0x108da6,(%esp)
  102ea4:	e8 d8 d5 ff ff       	call   100481 <debug_panic>

	//proc_print(ACQUIRE, p);
	spinlock_acquire(&p->lock);
  102ea9:	8b 45 08             	mov    0x8(%ebp),%eax
  102eac:	89 04 24             	mov    %eax,(%esp)
  102eaf:	e8 59 f4 ff ff       	call   10230d <spinlock_acquire>
	p->state = PROC_WAIT;
  102eb4:	8b 45 08             	mov    0x8(%ebp),%eax
  102eb7:	c7 80 40 04 00 00 03 	movl   $0x3,0x440(%eax)
  102ebe:	00 00 00 
	p->waitchild = cp;
  102ec1:	8b 45 08             	mov    0x8(%ebp),%eax
  102ec4:	8b 55 0c             	mov    0xc(%ebp),%edx
  102ec7:	89 90 4c 04 00 00    	mov    %edx,0x44c(%eax)
	//proc_print(RELEASE, p);
	spinlock_release(&p->lock);
  102ecd:	8b 45 08             	mov    0x8(%ebp),%eax
  102ed0:	89 04 24             	mov    %eax,(%esp)
  102ed3:	e8 a2 f4 ff ff       	call   10237a <spinlock_release>
	
	proc_save(p, tf, 0);
  102ed8:	c7 44 24 08 00 00 00 	movl   $0x0,0x8(%esp)
  102edf:	00 
  102ee0:	8b 45 10             	mov    0x10(%ebp),%eax
  102ee3:	89 44 24 04          	mov    %eax,0x4(%esp)
  102ee7:	8b 45 08             	mov    0x8(%ebp),%eax
  102eea:	89 04 24             	mov    %eax,(%esp)
  102eed:	e8 c1 fe ff ff       	call   102db3 <proc_save>

	assert(cp->state != PROC_STOP);
  102ef2:	8b 45 0c             	mov    0xc(%ebp),%eax
  102ef5:	8b 80 40 04 00 00    	mov    0x440(%eax),%eax
  102efb:	85 c0                	test   %eax,%eax
  102efd:	75 24                	jne    102f23 <proc_wait+0xd2>
  102eff:	c7 44 24 0c ad 8e 10 	movl   $0x108ead,0xc(%esp)
  102f06:	00 
  102f07:	c7 44 24 08 46 8d 10 	movl   $0x108d46,0x8(%esp)
  102f0e:	00 
  102f0f:	c7 44 24 04 ca 00 00 	movl   $0xca,0x4(%esp)
  102f16:	00 
  102f17:	c7 04 24 a6 8d 10 00 	movl   $0x108da6,(%esp)
  102f1e:	e8 5e d5 ff ff       	call   100481 <debug_panic>
	
	proc_sched();
  102f23:	e8 00 00 00 00       	call   102f28 <proc_sched>

00102f28 <proc_sched>:
	
}

void gcc_noreturn
proc_sched(void)
{
  102f28:	55                   	push   %ebp
  102f29:	89 e5                	mov    %esp,%ebp
  102f2b:	83 ec 28             	sub    $0x28,%esp
			
		// if there is no ready process in queue
		// just wait

		//proc_print(ACQUIRE, NULL);
		spinlock_acquire(&queue.lock);
  102f2e:	c7 04 24 40 f4 31 00 	movl   $0x31f440,(%esp)
  102f35:	e8 d3 f3 ff ff       	call   10230d <spinlock_acquire>

		if(queue.count != 0){
  102f3a:	a1 78 f4 31 00       	mov    0x31f478,%eax
  102f3f:	85 c0                	test   %eax,%eax
  102f41:	0f 84 8e 00 00 00    	je     102fd5 <proc_sched+0xad>
			// if there is just one ready process
			if(queue.count == 1){
  102f47:	a1 78 f4 31 00       	mov    0x31f478,%eax
  102f4c:	83 f8 01             	cmp    $0x1,%eax
  102f4f:	75 28                	jne    102f79 <proc_sched+0x51>
				//cprintf("in sched queue.count == 1\n");
				run = queue.head;
  102f51:	a1 7c f4 31 00       	mov    0x31f47c,%eax
  102f56:	89 45 f0             	mov    %eax,-0x10(%ebp)
				queue.head = queue.tail = NULL;
  102f59:	c7 05 80 f4 31 00 00 	movl   $0x0,0x31f480
  102f60:	00 00 00 
  102f63:	a1 80 f4 31 00       	mov    0x31f480,%eax
  102f68:	a3 7c f4 31 00       	mov    %eax,0x31f47c
				queue.count = 0;	
  102f6d:	c7 05 78 f4 31 00 00 	movl   $0x0,0x31f478
  102f74:	00 00 00 
  102f77:	eb 45                	jmp    102fbe <proc_sched+0x96>
			
			
			// if there is more than one ready processes
			else{
				//cprintf("in sched queue.count > 1\n");
				proc* before_tail = queue.head;
  102f79:	a1 7c f4 31 00       	mov    0x31f47c,%eax
  102f7e:	89 45 f4             	mov    %eax,-0xc(%ebp)
				while(before_tail->readynext != queue.tail){
  102f81:	eb 0c                	jmp    102f8f <proc_sched+0x67>
					before_tail = before_tail->readynext;
  102f83:	8b 45 f4             	mov    -0xc(%ebp),%eax
  102f86:	8b 80 44 04 00 00    	mov    0x444(%eax),%eax
  102f8c:	89 45 f4             	mov    %eax,-0xc(%ebp)
			
			// if there is more than one ready processes
			else{
				//cprintf("in sched queue.count > 1\n");
				proc* before_tail = queue.head;
				while(before_tail->readynext != queue.tail){
  102f8f:	8b 45 f4             	mov    -0xc(%ebp),%eax
  102f92:	8b 90 44 04 00 00    	mov    0x444(%eax),%edx
  102f98:	a1 80 f4 31 00       	mov    0x31f480,%eax
  102f9d:	39 c2                	cmp    %eax,%edx
  102f9f:	75 e2                	jne    102f83 <proc_sched+0x5b>
					before_tail = before_tail->readynext;
				}	
				run = queue.tail;
  102fa1:	a1 80 f4 31 00       	mov    0x31f480,%eax
  102fa6:	89 45 f0             	mov    %eax,-0x10(%ebp)
				queue.tail = before_tail;
  102fa9:	8b 45 f4             	mov    -0xc(%ebp),%eax
  102fac:	a3 80 f4 31 00       	mov    %eax,0x31f480
				queue.count--;				
  102fb1:	a1 78 f4 31 00       	mov    0x31f478,%eax
  102fb6:	83 e8 01             	sub    $0x1,%eax
  102fb9:	a3 78 f4 31 00       	mov    %eax,0x31f478
				queue.count--;
			}
			*/
			
	
			spinlock_release(&queue.lock);
  102fbe:	c7 04 24 40 f4 31 00 	movl   $0x31f440,(%esp)
  102fc5:	e8 b0 f3 ff ff       	call   10237a <spinlock_release>
			proc_run(run);
  102fca:	8b 45 f0             	mov    -0x10(%ebp),%eax
  102fcd:	89 04 24             	mov    %eax,(%esp)
  102fd0:	e8 16 00 00 00       	call   102feb <proc_run>
		}
		spinlock_release(&queue.lock);
  102fd5:	c7 04 24 40 f4 31 00 	movl   $0x31f440,(%esp)
  102fdc:	e8 99 f3 ff ff       	call   10237a <spinlock_release>
		pause();
  102fe1:	e8 b7 f9 ff ff       	call   10299d <pause>
	}
  102fe6:	e9 43 ff ff ff       	jmp    102f2e <proc_sched+0x6>

00102feb <proc_run>:
}

// Switch to and run a specified process, which must already be locked.
void gcc_noreturn
proc_run(proc *p)
{
  102feb:	55                   	push   %ebp
  102fec:	89 e5                	mov    %esp,%ebp
  102fee:	83 ec 28             	sub    $0x28,%esp
	//panic("proc_run not implemented");

	//cprintf("proc %x is running on cpu:%d\n", p, cpu_cur()->id);
	
	if(p == NULL)
  102ff1:	83 7d 08 00          	cmpl   $0x0,0x8(%ebp)
  102ff5:	75 1c                	jne    103013 <proc_run+0x28>
		panic("proc_run's p is null!");
  102ff7:	c7 44 24 08 c4 8e 10 	movl   $0x108ec4,0x8(%esp)
  102ffe:	00 
  102fff:	c7 44 24 04 16 01 00 	movl   $0x116,0x4(%esp)
  103006:	00 
  103007:	c7 04 24 a6 8d 10 00 	movl   $0x108da6,(%esp)
  10300e:	e8 6e d4 ff ff       	call   100481 <debug_panic>

	assert(p->state == PROC_READY);
  103013:	8b 45 08             	mov    0x8(%ebp),%eax
  103016:	8b 80 40 04 00 00    	mov    0x440(%eax),%eax
  10301c:	83 f8 01             	cmp    $0x1,%eax
  10301f:	74 24                	je     103045 <proc_run+0x5a>
  103021:	c7 44 24 0c da 8e 10 	movl   $0x108eda,0xc(%esp)
  103028:	00 
  103029:	c7 44 24 08 46 8d 10 	movl   $0x108d46,0x8(%esp)
  103030:	00 
  103031:	c7 44 24 04 18 01 00 	movl   $0x118,0x4(%esp)
  103038:	00 
  103039:	c7 04 24 a6 8d 10 00 	movl   $0x108da6,(%esp)
  103040:	e8 3c d4 ff ff       	call   100481 <debug_panic>

	//proc_print(ACQUIRE, p);
	spinlock_acquire(&p->lock);
  103045:	8b 45 08             	mov    0x8(%ebp),%eax
  103048:	89 04 24             	mov    %eax,(%esp)
  10304b:	e8 bd f2 ff ff       	call   10230d <spinlock_acquire>

	cpu* c = cpu_cur();
  103050:	e8 4f f9 ff ff       	call   1029a4 <cpu_cur>
  103055:	89 45 f4             	mov    %eax,-0xc(%ebp)
	c->proc = p;
  103058:	8b 45 f4             	mov    -0xc(%ebp),%eax
  10305b:	8b 55 08             	mov    0x8(%ebp),%edx
  10305e:	89 90 b4 00 00 00    	mov    %edx,0xb4(%eax)
	p->state = PROC_RUN;
  103064:	8b 45 08             	mov    0x8(%ebp),%eax
  103067:	c7 80 40 04 00 00 02 	movl   $0x2,0x440(%eax)
  10306e:	00 00 00 
	p->runcpu = c;
  103071:	8b 45 08             	mov    0x8(%ebp),%eax
  103074:	8b 55 f4             	mov    -0xc(%ebp),%edx
  103077:	89 90 48 04 00 00    	mov    %edx,0x448(%eax)

	//proc_print(RELEASE, p);
	spinlock_release(&p->lock);
  10307d:	8b 45 08             	mov    0x8(%ebp),%eax
  103080:	89 04 24             	mov    %eax,(%esp)
  103083:	e8 f2 f2 ff ff       	call   10237a <spinlock_release>

	//cprintf("eip = %d\n", p->sv.tf.eip);
	
	trap_return(&p->sv.tf);
  103088:	8b 45 08             	mov    0x8(%ebp),%eax
  10308b:	05 50 04 00 00       	add    $0x450,%eax
  103090:	89 04 24             	mov    %eax,(%esp)
  103093:	e8 58 90 00 00       	call   10c0f0 <trap_return>

00103098 <proc_yield>:

// Yield the current CPU to another ready process.
// Called while handling a timer interrupt.
void gcc_noreturn
proc_yield(trapframe *tf)
{
  103098:	55                   	push   %ebp
  103099:	89 e5                	mov    %esp,%ebp
  10309b:	83 ec 28             	sub    $0x28,%esp
	//panic("proc_yield not implemented");

 	//cprintf("in yield\n");
	proc* cur_proc = cpu_cur()->proc;
  10309e:	e8 01 f9 ff ff       	call   1029a4 <cpu_cur>
  1030a3:	8b 80 b4 00 00 00    	mov    0xb4(%eax),%eax
  1030a9:	89 45 f4             	mov    %eax,-0xc(%ebp)
	proc_save(cur_proc, tf, 1);
  1030ac:	c7 44 24 08 01 00 00 	movl   $0x1,0x8(%esp)
  1030b3:	00 
  1030b4:	8b 45 08             	mov    0x8(%ebp),%eax
  1030b7:	89 44 24 04          	mov    %eax,0x4(%esp)
  1030bb:	8b 45 f4             	mov    -0xc(%ebp),%eax
  1030be:	89 04 24             	mov    %eax,(%esp)
  1030c1:	e8 ed fc ff ff       	call   102db3 <proc_save>
	proc_ready(cur_proc);
  1030c6:	8b 45 f4             	mov    -0xc(%ebp),%eax
  1030c9:	89 04 24             	mov    %eax,(%esp)
  1030cc:	e8 ff fb ff ff       	call   102cd0 <proc_ready>
	proc_sched();
  1030d1:	e8 52 fe ff ff       	call   102f28 <proc_sched>

001030d6 <proc_ret>:
// Used both when a process calls the SYS_RET system call explicitly,
// and when a process causes an unhandled trap in user mode.
// The 'entry' parameter is as in proc_save().
void gcc_noreturn
proc_ret(trapframe *tf, int entry)
{
  1030d6:	55                   	push   %ebp
  1030d7:	89 e5                	mov    %esp,%ebp
  1030d9:	83 ec 28             	sub    $0x28,%esp
	//panic("proc_ret not implemented");

	proc* proc_child = proc_cur();
  1030dc:	e8 c3 f8 ff ff       	call   1029a4 <cpu_cur>
  1030e1:	8b 80 b4 00 00 00    	mov    0xb4(%eax),%eax
  1030e7:	89 45 f0             	mov    %eax,-0x10(%ebp)
	proc* proc_parent = proc_child->parent;
  1030ea:	8b 45 f0             	mov    -0x10(%ebp),%eax
  1030ed:	8b 40 3c             	mov    0x3c(%eax),%eax
  1030f0:	89 45 f4             	mov    %eax,-0xc(%ebp)

	assert(proc_child->state != PROC_STOP);
  1030f3:	8b 45 f0             	mov    -0x10(%ebp),%eax
  1030f6:	8b 80 40 04 00 00    	mov    0x440(%eax),%eax
  1030fc:	85 c0                	test   %eax,%eax
  1030fe:	75 24                	jne    103124 <proc_ret+0x4e>
  103100:	c7 44 24 0c f4 8e 10 	movl   $0x108ef4,0xc(%esp)
  103107:	00 
  103108:	c7 44 24 08 46 8d 10 	movl   $0x108d46,0x8(%esp)
  10310f:	00 
  103110:	c7 44 24 04 45 01 00 	movl   $0x145,0x4(%esp)
  103117:	00 
  103118:	c7 04 24 a6 8d 10 00 	movl   $0x108da6,(%esp)
  10311f:	e8 5d d3 ff ff       	call   100481 <debug_panic>

	//proc_print(ACQUIRE, proc_child);
	spinlock_acquire(&proc_child->lock);
  103124:	8b 45 f0             	mov    -0x10(%ebp),%eax
  103127:	89 04 24             	mov    %eax,(%esp)
  10312a:	e8 de f1 ff ff       	call   10230d <spinlock_acquire>
	proc_child->state = PROC_STOP;
  10312f:	8b 45 f0             	mov    -0x10(%ebp),%eax
  103132:	c7 80 40 04 00 00 00 	movl   $0x0,0x440(%eax)
  103139:	00 00 00 
	//proc_print(RELEASE, proc_child);
	spinlock_release(&proc_child->lock);
  10313c:	8b 45 f0             	mov    -0x10(%ebp),%eax
  10313f:	89 04 24             	mov    %eax,(%esp)
  103142:	e8 33 f2 ff ff       	call   10237a <spinlock_release>

	proc_save(proc_child, tf, entry);
  103147:	8b 45 0c             	mov    0xc(%ebp),%eax
  10314a:	89 44 24 08          	mov    %eax,0x8(%esp)
  10314e:	8b 45 08             	mov    0x8(%ebp),%eax
  103151:	89 44 24 04          	mov    %eax,0x4(%esp)
  103155:	8b 45 f0             	mov    -0x10(%ebp),%eax
  103158:	89 04 24             	mov    %eax,(%esp)
  10315b:	e8 53 fc ff ff       	call   102db3 <proc_save>

	if((proc_parent->state == PROC_WAIT) && (proc_parent->waitchild == proc_child) )
  103160:	8b 45 f4             	mov    -0xc(%ebp),%eax
  103163:	8b 80 40 04 00 00    	mov    0x440(%eax),%eax
  103169:	83 f8 03             	cmp    $0x3,%eax
  10316c:	75 19                	jne    103187 <proc_ret+0xb1>
  10316e:	8b 45 f4             	mov    -0xc(%ebp),%eax
  103171:	8b 80 4c 04 00 00    	mov    0x44c(%eax),%eax
  103177:	3b 45 f0             	cmp    -0x10(%ebp),%eax
  10317a:	75 0b                	jne    103187 <proc_ret+0xb1>
		proc_ready(proc_parent);
  10317c:	8b 45 f4             	mov    -0xc(%ebp),%eax
  10317f:	89 04 24             	mov    %eax,(%esp)
  103182:	e8 49 fb ff ff       	call   102cd0 <proc_ready>

	proc_sched();
  103187:	e8 9c fd ff ff       	call   102f28 <proc_sched>

0010318c <proc_check>:
static volatile uint32_t pingpong = 0;
static void *recovargs;

void
proc_check(void)
{
  10318c:	55                   	push   %ebp
  10318d:	89 e5                	mov    %esp,%ebp
  10318f:	57                   	push   %edi
  103190:	56                   	push   %esi
  103191:	53                   	push   %ebx
  103192:	81 ec dc 00 00 00    	sub    $0xdc,%esp
	// Spawn 2 child processes, executing on statically allocated stacks.

	int i;
	for (i = 0; i < 4; i++) {
  103198:	c7 85 34 ff ff ff 00 	movl   $0x0,-0xcc(%ebp)
  10319f:	00 00 00 
  1031a2:	e9 06 01 00 00       	jmp    1032ad <proc_check+0x121>
		// Setup register state for child
		uint32_t *esp = (uint32_t*) &child_stack[i][PAGESIZE];
  1031a7:	b8 90 ac 11 00       	mov    $0x11ac90,%eax
  1031ac:	8b 95 34 ff ff ff    	mov    -0xcc(%ebp),%edx
  1031b2:	83 c2 01             	add    $0x1,%edx
  1031b5:	c1 e2 0c             	shl    $0xc,%edx
  1031b8:	01 d0                	add    %edx,%eax
  1031ba:	89 85 38 ff ff ff    	mov    %eax,-0xc8(%ebp)
		*--esp = i;	// push argument to child() function
  1031c0:	83 ad 38 ff ff ff 04 	subl   $0x4,-0xc8(%ebp)
  1031c7:	8b 95 34 ff ff ff    	mov    -0xcc(%ebp),%edx
  1031cd:	8b 85 38 ff ff ff    	mov    -0xc8(%ebp),%eax
  1031d3:	89 10                	mov    %edx,(%eax)
		*--esp = 0;	// fake return address
  1031d5:	83 ad 38 ff ff ff 04 	subl   $0x4,-0xc8(%ebp)
  1031dc:	8b 85 38 ff ff ff    	mov    -0xc8(%ebp),%eax
  1031e2:	c7 00 00 00 00 00    	movl   $0x0,(%eax)
		child_state.tf.eip = (uint32_t) child;
  1031e8:	b8 c5 36 10 00       	mov    $0x1036c5,%eax
  1031ed:	a3 78 aa 11 00       	mov    %eax,0x11aa78
		child_state.tf.esp = (uint32_t) esp;
  1031f2:	8b 85 38 ff ff ff    	mov    -0xc8(%ebp),%eax
  1031f8:	a3 84 aa 11 00       	mov    %eax,0x11aa84

		// Use PUT syscall to create each child,
		// but only start the first 2 children for now.
		cprintf("spawning child %d\n", i);
  1031fd:	8b 85 34 ff ff ff    	mov    -0xcc(%ebp),%eax
  103203:	89 44 24 04          	mov    %eax,0x4(%esp)
  103207:	c7 04 24 13 8f 10 00 	movl   $0x108f13,(%esp)
  10320e:	e8 4c 49 00 00       	call   107b5f <cprintf>

		sys_put(SYS_REGS | (i < 2 ? SYS_START : 0), i, &child_state,
  103213:	8b 85 34 ff ff ff    	mov    -0xcc(%ebp),%eax
  103219:	0f b7 d0             	movzwl %ax,%edx
  10321c:	83 bd 34 ff ff ff 01 	cmpl   $0x1,-0xcc(%ebp)
  103223:	7f 07                	jg     10322c <proc_check+0xa0>
  103225:	b8 10 10 00 00       	mov    $0x1010,%eax
  10322a:	eb 05                	jmp    103231 <proc_check+0xa5>
  10322c:	b8 00 10 00 00       	mov    $0x1000,%eax
  103231:	89 85 54 ff ff ff    	mov    %eax,-0xac(%ebp)
  103237:	66 89 95 52 ff ff ff 	mov    %dx,-0xae(%ebp)
  10323e:	c7 85 4c ff ff ff 40 	movl   $0x11aa40,-0xb4(%ebp)
  103245:	aa 11 00 
  103248:	c7 85 48 ff ff ff 00 	movl   $0x0,-0xb8(%ebp)
  10324f:	00 00 00 
  103252:	c7 85 44 ff ff ff 00 	movl   $0x0,-0xbc(%ebp)
  103259:	00 00 00 
  10325c:	c7 85 40 ff ff ff 00 	movl   $0x0,-0xc0(%ebp)
  103263:	00 00 00 
sys_put(uint32_t flags, uint16_t child, procstate *save,
		void *localsrc, void *childdest, size_t size)
{
	asm volatile("int %0" :
		: "i" (T_SYSCALL),
		  "a" (SYS_PUT | flags),
  103266:	8b 85 54 ff ff ff    	mov    -0xac(%ebp),%eax
  10326c:	83 c8 01             	or     $0x1,%eax

static void gcc_inline
sys_put(uint32_t flags, uint16_t child, procstate *save,
		void *localsrc, void *childdest, size_t size)
{
	asm volatile("int %0" :
  10326f:	8b 9d 4c ff ff ff    	mov    -0xb4(%ebp),%ebx
  103275:	0f b7 95 52 ff ff ff 	movzwl -0xae(%ebp),%edx
  10327c:	8b b5 48 ff ff ff    	mov    -0xb8(%ebp),%esi
  103282:	8b bd 44 ff ff ff    	mov    -0xbc(%ebp),%edi
  103288:	8b 8d 40 ff ff ff    	mov    -0xc0(%ebp),%ecx
  10328e:	cd 30                	int    $0x30
			NULL, NULL, 0);
		
		cprintf("i == %d complete!\n", i);
  103290:	8b 85 34 ff ff ff    	mov    -0xcc(%ebp),%eax
  103296:	89 44 24 04          	mov    %eax,0x4(%esp)
  10329a:	c7 04 24 26 8f 10 00 	movl   $0x108f26,(%esp)
  1032a1:	e8 b9 48 00 00       	call   107b5f <cprintf>
proc_check(void)
{
	// Spawn 2 child processes, executing on statically allocated stacks.

	int i;
	for (i = 0; i < 4; i++) {
  1032a6:	83 85 34 ff ff ff 01 	addl   $0x1,-0xcc(%ebp)
  1032ad:	83 bd 34 ff ff ff 03 	cmpl   $0x3,-0xcc(%ebp)
  1032b4:	0f 8e ed fe ff ff    	jle    1031a7 <proc_check+0x1b>
	}

	// Wait for both children to complete.
	// This should complete without preemptive scheduling
	// when we're running on a 2-processor machine.
	for (i = 0; i < 2; i++) {
  1032ba:	c7 85 34 ff ff ff 00 	movl   $0x0,-0xcc(%ebp)
  1032c1:	00 00 00 
  1032c4:	e9 89 00 00 00       	jmp    103352 <proc_check+0x1c6>
		cprintf("waiting for child %d\n", i);
  1032c9:	8b 85 34 ff ff ff    	mov    -0xcc(%ebp),%eax
  1032cf:	89 44 24 04          	mov    %eax,0x4(%esp)
  1032d3:	c7 04 24 39 8f 10 00 	movl   $0x108f39,(%esp)
  1032da:	e8 80 48 00 00       	call   107b5f <cprintf>
		sys_get(SYS_REGS, i, &child_state, NULL, NULL, 0);
  1032df:	8b 85 34 ff ff ff    	mov    -0xcc(%ebp),%eax
  1032e5:	0f b7 c0             	movzwl %ax,%eax
  1032e8:	c7 85 6c ff ff ff 00 	movl   $0x1000,-0x94(%ebp)
  1032ef:	10 00 00 
  1032f2:	66 89 85 6a ff ff ff 	mov    %ax,-0x96(%ebp)
  1032f9:	c7 85 64 ff ff ff 40 	movl   $0x11aa40,-0x9c(%ebp)
  103300:	aa 11 00 
  103303:	c7 85 60 ff ff ff 00 	movl   $0x0,-0xa0(%ebp)
  10330a:	00 00 00 
  10330d:	c7 85 5c ff ff ff 00 	movl   $0x0,-0xa4(%ebp)
  103314:	00 00 00 
  103317:	c7 85 58 ff ff ff 00 	movl   $0x0,-0xa8(%ebp)
  10331e:	00 00 00 
sys_get(uint32_t flags, uint16_t child, procstate *save,
		void *childsrc, void *localdest, size_t size)
{
	asm volatile("int %0" :
		: "i" (T_SYSCALL),
		  "a" (SYS_GET | flags),
  103321:	8b 85 6c ff ff ff    	mov    -0x94(%ebp),%eax
  103327:	83 c8 02             	or     $0x2,%eax

static void gcc_inline
sys_get(uint32_t flags, uint16_t child, procstate *save,
		void *childsrc, void *localdest, size_t size)
{
	asm volatile("int %0" :
  10332a:	8b 9d 64 ff ff ff    	mov    -0x9c(%ebp),%ebx
  103330:	0f b7 95 6a ff ff ff 	movzwl -0x96(%ebp),%edx
  103337:	8b b5 60 ff ff ff    	mov    -0xa0(%ebp),%esi
  10333d:	8b bd 5c ff ff ff    	mov    -0xa4(%ebp),%edi
  103343:	8b 8d 58 ff ff ff    	mov    -0xa8(%ebp),%ecx
  103349:	cd 30                	int    $0x30
	}

	// Wait for both children to complete.
	// This should complete without preemptive scheduling
	// when we're running on a 2-processor machine.
	for (i = 0; i < 2; i++) {
  10334b:	83 85 34 ff ff ff 01 	addl   $0x1,-0xcc(%ebp)
  103352:	83 bd 34 ff ff ff 01 	cmpl   $0x1,-0xcc(%ebp)
  103359:	0f 8e 6a ff ff ff    	jle    1032c9 <proc_check+0x13d>
		cprintf("waiting for child %d\n", i);
		sys_get(SYS_REGS, i, &child_state, NULL, NULL, 0);
	}
	cprintf("proc_check() 2-child test succeeded\n");
  10335f:	c7 04 24 50 8f 10 00 	movl   $0x108f50,(%esp)
  103366:	e8 f4 47 00 00       	call   107b5f <cprintf>

	// (Re)start all four children, and wait for them.
	// This will require preemptive scheduling to complete
	// if we have less than 4 CPUs.
	cprintf("proc_check: spawning 4 children\n");
  10336b:	c7 04 24 78 8f 10 00 	movl   $0x108f78,(%esp)
  103372:	e8 e8 47 00 00       	call   107b5f <cprintf>
	for (i = 0; i < 4; i++) {
  103377:	c7 85 34 ff ff ff 00 	movl   $0x0,-0xcc(%ebp)
  10337e:	00 00 00 
  103381:	eb 7d                	jmp    103400 <proc_check+0x274>
		cprintf("spawning child %d\n", i);
  103383:	8b 85 34 ff ff ff    	mov    -0xcc(%ebp),%eax
  103389:	89 44 24 04          	mov    %eax,0x4(%esp)
  10338d:	c7 04 24 13 8f 10 00 	movl   $0x108f13,(%esp)
  103394:	e8 c6 47 00 00       	call   107b5f <cprintf>
		sys_put(SYS_START, i, NULL, NULL, NULL, 0);
  103399:	8b 85 34 ff ff ff    	mov    -0xcc(%ebp),%eax
  10339f:	0f b7 c0             	movzwl %ax,%eax
  1033a2:	c7 45 84 10 00 00 00 	movl   $0x10,-0x7c(%ebp)
  1033a9:	66 89 45 82          	mov    %ax,-0x7e(%ebp)
  1033ad:	c7 85 7c ff ff ff 00 	movl   $0x0,-0x84(%ebp)
  1033b4:	00 00 00 
  1033b7:	c7 85 78 ff ff ff 00 	movl   $0x0,-0x88(%ebp)
  1033be:	00 00 00 
  1033c1:	c7 85 74 ff ff ff 00 	movl   $0x0,-0x8c(%ebp)
  1033c8:	00 00 00 
  1033cb:	c7 85 70 ff ff ff 00 	movl   $0x0,-0x90(%ebp)
  1033d2:	00 00 00 
sys_put(uint32_t flags, uint16_t child, procstate *save,
		void *localsrc, void *childdest, size_t size)
{
	asm volatile("int %0" :
		: "i" (T_SYSCALL),
		  "a" (SYS_PUT | flags),
  1033d5:	8b 45 84             	mov    -0x7c(%ebp),%eax
  1033d8:	83 c8 01             	or     $0x1,%eax

static void gcc_inline
sys_put(uint32_t flags, uint16_t child, procstate *save,
		void *localsrc, void *childdest, size_t size)
{
	asm volatile("int %0" :
  1033db:	8b 9d 7c ff ff ff    	mov    -0x84(%ebp),%ebx
  1033e1:	0f b7 55 82          	movzwl -0x7e(%ebp),%edx
  1033e5:	8b b5 78 ff ff ff    	mov    -0x88(%ebp),%esi
  1033eb:	8b bd 74 ff ff ff    	mov    -0x8c(%ebp),%edi
  1033f1:	8b 8d 70 ff ff ff    	mov    -0x90(%ebp),%ecx
  1033f7:	cd 30                	int    $0x30

	// (Re)start all four children, and wait for them.
	// This will require preemptive scheduling to complete
	// if we have less than 4 CPUs.
	cprintf("proc_check: spawning 4 children\n");
	for (i = 0; i < 4; i++) {
  1033f9:	83 85 34 ff ff ff 01 	addl   $0x1,-0xcc(%ebp)
  103400:	83 bd 34 ff ff ff 03 	cmpl   $0x3,-0xcc(%ebp)
  103407:	0f 8e 76 ff ff ff    	jle    103383 <proc_check+0x1f7>
		cprintf("spawning child %d\n", i);
		sys_put(SYS_START, i, NULL, NULL, NULL, 0);
	}

	cprintf("Wait for all 4 children to complete.\n");
  10340d:	c7 04 24 9c 8f 10 00 	movl   $0x108f9c,(%esp)
  103414:	e8 46 47 00 00       	call   107b5f <cprintf>
	// Wait for all 4 children to complete.
	for (i = 0; i < 4; i++)
  103419:	c7 85 34 ff ff ff 00 	movl   $0x0,-0xcc(%ebp)
  103420:	00 00 00 
  103423:	eb 4f                	jmp    103474 <proc_check+0x2e8>
		sys_get(0, i, NULL, NULL, NULL, 0);
  103425:	8b 85 34 ff ff ff    	mov    -0xcc(%ebp),%eax
  10342b:	0f b7 c0             	movzwl %ax,%eax
  10342e:	c7 45 9c 00 00 00 00 	movl   $0x0,-0x64(%ebp)
  103435:	66 89 45 9a          	mov    %ax,-0x66(%ebp)
  103439:	c7 45 94 00 00 00 00 	movl   $0x0,-0x6c(%ebp)
  103440:	c7 45 90 00 00 00 00 	movl   $0x0,-0x70(%ebp)
  103447:	c7 45 8c 00 00 00 00 	movl   $0x0,-0x74(%ebp)
  10344e:	c7 45 88 00 00 00 00 	movl   $0x0,-0x78(%ebp)
sys_get(uint32_t flags, uint16_t child, procstate *save,
		void *childsrc, void *localdest, size_t size)
{
	asm volatile("int %0" :
		: "i" (T_SYSCALL),
		  "a" (SYS_GET | flags),
  103455:	8b 45 9c             	mov    -0x64(%ebp),%eax
  103458:	83 c8 02             	or     $0x2,%eax

static void gcc_inline
sys_get(uint32_t flags, uint16_t child, procstate *save,
		void *childsrc, void *localdest, size_t size)
{
	asm volatile("int %0" :
  10345b:	8b 5d 94             	mov    -0x6c(%ebp),%ebx
  10345e:	0f b7 55 9a          	movzwl -0x66(%ebp),%edx
  103462:	8b 75 90             	mov    -0x70(%ebp),%esi
  103465:	8b 7d 8c             	mov    -0x74(%ebp),%edi
  103468:	8b 4d 88             	mov    -0x78(%ebp),%ecx
  10346b:	cd 30                	int    $0x30
		sys_put(SYS_START, i, NULL, NULL, NULL, 0);
	}

	cprintf("Wait for all 4 children to complete.\n");
	// Wait for all 4 children to complete.
	for (i = 0; i < 4; i++)
  10346d:	83 85 34 ff ff ff 01 	addl   $0x1,-0xcc(%ebp)
  103474:	83 bd 34 ff ff ff 03 	cmpl   $0x3,-0xcc(%ebp)
  10347b:	7e a8                	jle    103425 <proc_check+0x299>
		sys_get(0, i, NULL, NULL, NULL, 0);
	cprintf("proc_check() 4-child test succeeded\n");
  10347d:	c7 04 24 c4 8f 10 00 	movl   $0x108fc4,(%esp)
  103484:	e8 d6 46 00 00       	call   107b5f <cprintf>

	// Now do a trap handling test using all 4 children -
	// but they'll _think_ they're all child 0!
	// (We'll lose the register state of the other children.)
	i = 0;
  103489:	c7 85 34 ff ff ff 00 	movl   $0x0,-0xcc(%ebp)
  103490:	00 00 00 
	sys_get(SYS_REGS, i, &child_state, NULL, NULL, 0);
  103493:	8b 85 34 ff ff ff    	mov    -0xcc(%ebp),%eax
  103499:	0f b7 c0             	movzwl %ax,%eax
  10349c:	c7 45 b4 00 10 00 00 	movl   $0x1000,-0x4c(%ebp)
  1034a3:	66 89 45 b2          	mov    %ax,-0x4e(%ebp)
  1034a7:	c7 45 ac 40 aa 11 00 	movl   $0x11aa40,-0x54(%ebp)
  1034ae:	c7 45 a8 00 00 00 00 	movl   $0x0,-0x58(%ebp)
  1034b5:	c7 45 a4 00 00 00 00 	movl   $0x0,-0x5c(%ebp)
  1034bc:	c7 45 a0 00 00 00 00 	movl   $0x0,-0x60(%ebp)
		: "i" (T_SYSCALL),
		  "a" (SYS_GET | flags),
  1034c3:	8b 45 b4             	mov    -0x4c(%ebp),%eax
  1034c6:	83 c8 02             	or     $0x2,%eax

static void gcc_inline
sys_get(uint32_t flags, uint16_t child, procstate *save,
		void *childsrc, void *localdest, size_t size)
{
	asm volatile("int %0" :
  1034c9:	8b 5d ac             	mov    -0x54(%ebp),%ebx
  1034cc:	0f b7 55 b2          	movzwl -0x4e(%ebp),%edx
  1034d0:	8b 75 a8             	mov    -0x58(%ebp),%esi
  1034d3:	8b 7d a4             	mov    -0x5c(%ebp),%edi
  1034d6:	8b 4d a0             	mov    -0x60(%ebp),%ecx
  1034d9:	cd 30                	int    $0x30
		// get child 0's state
	assert(recovargs == NULL);
  1034db:	a1 94 ec 11 00       	mov    0x11ec94,%eax
  1034e0:	85 c0                	test   %eax,%eax
  1034e2:	74 24                	je     103508 <proc_check+0x37c>
  1034e4:	c7 44 24 0c e9 8f 10 	movl   $0x108fe9,0xc(%esp)
  1034eb:	00 
  1034ec:	c7 44 24 08 46 8d 10 	movl   $0x108d46,0x8(%esp)
  1034f3:	00 
  1034f4:	c7 44 24 04 96 01 00 	movl   $0x196,0x4(%esp)
  1034fb:	00 
  1034fc:	c7 04 24 a6 8d 10 00 	movl   $0x108da6,(%esp)
  103503:	e8 79 cf ff ff       	call   100481 <debug_panic>
	cprintf("============== tag 1 \n");
  103508:	c7 04 24 fb 8f 10 00 	movl   $0x108ffb,(%esp)
  10350f:	e8 4b 46 00 00       	call   107b5f <cprintf>
	do {
		sys_put(SYS_REGS | SYS_START, i, &child_state, NULL, NULL, 0);
  103514:	8b 85 34 ff ff ff    	mov    -0xcc(%ebp),%eax
  10351a:	0f b7 c0             	movzwl %ax,%eax
  10351d:	c7 45 cc 10 10 00 00 	movl   $0x1010,-0x34(%ebp)
  103524:	66 89 45 ca          	mov    %ax,-0x36(%ebp)
  103528:	c7 45 c4 40 aa 11 00 	movl   $0x11aa40,-0x3c(%ebp)
  10352f:	c7 45 c0 00 00 00 00 	movl   $0x0,-0x40(%ebp)
  103536:	c7 45 bc 00 00 00 00 	movl   $0x0,-0x44(%ebp)
  10353d:	c7 45 b8 00 00 00 00 	movl   $0x0,-0x48(%ebp)
sys_put(uint32_t flags, uint16_t child, procstate *save,
		void *localsrc, void *childdest, size_t size)
{
	asm volatile("int %0" :
		: "i" (T_SYSCALL),
		  "a" (SYS_PUT | flags),
  103544:	8b 45 cc             	mov    -0x34(%ebp),%eax
  103547:	83 c8 01             	or     $0x1,%eax

static void gcc_inline
sys_put(uint32_t flags, uint16_t child, procstate *save,
		void *localsrc, void *childdest, size_t size)
{
	asm volatile("int %0" :
  10354a:	8b 5d c4             	mov    -0x3c(%ebp),%ebx
  10354d:	0f b7 55 ca          	movzwl -0x36(%ebp),%edx
  103551:	8b 75 c0             	mov    -0x40(%ebp),%esi
  103554:	8b 7d bc             	mov    -0x44(%ebp),%edi
  103557:	8b 4d b8             	mov    -0x48(%ebp),%ecx
  10355a:	cd 30                	int    $0x30
		//cprintf("(1). child_state.tf.trapno = %d\n", child_state.tf.trapno);
		sys_get(SYS_REGS, i, &child_state, NULL, NULL, 0);
  10355c:	8b 85 34 ff ff ff    	mov    -0xcc(%ebp),%eax
  103562:	0f b7 c0             	movzwl %ax,%eax
  103565:	c7 45 e4 00 10 00 00 	movl   $0x1000,-0x1c(%ebp)
  10356c:	66 89 45 e2          	mov    %ax,-0x1e(%ebp)
  103570:	c7 45 dc 40 aa 11 00 	movl   $0x11aa40,-0x24(%ebp)
  103577:	c7 45 d8 00 00 00 00 	movl   $0x0,-0x28(%ebp)
  10357e:	c7 45 d4 00 00 00 00 	movl   $0x0,-0x2c(%ebp)
  103585:	c7 45 d0 00 00 00 00 	movl   $0x0,-0x30(%ebp)
sys_get(uint32_t flags, uint16_t child, procstate *save,
		void *childsrc, void *localdest, size_t size)
{
	asm volatile("int %0" :
		: "i" (T_SYSCALL),
		  "a" (SYS_GET | flags),
  10358c:	8b 45 e4             	mov    -0x1c(%ebp),%eax
  10358f:	83 c8 02             	or     $0x2,%eax

static void gcc_inline
sys_get(uint32_t flags, uint16_t child, procstate *save,
		void *childsrc, void *localdest, size_t size)
{
	asm volatile("int %0" :
  103592:	8b 5d dc             	mov    -0x24(%ebp),%ebx
  103595:	0f b7 55 e2          	movzwl -0x1e(%ebp),%edx
  103599:	8b 75 d8             	mov    -0x28(%ebp),%esi
  10359c:	8b 7d d4             	mov    -0x2c(%ebp),%edi
  10359f:	8b 4d d0             	mov    -0x30(%ebp),%ecx
